ARM GAS  C:\Users\wucha\AppData\Local\Temp\cc1DVVy2.s 			page 1


   1              		.cpu cortex-m4
   2              		.eabi_attribute 27, 1
   3              		.eabi_attribute 28, 1
   4              		.eabi_attribute 20, 1
   5              		.eabi_attribute 21, 1
   6              		.eabi_attribute 23, 3
   7              		.eabi_attribute 24, 1
   8              		.eabi_attribute 25, 1
   9              		.eabi_attribute 26, 1
  10              		.eabi_attribute 30, 1
  11              		.eabi_attribute 34, 1
  12              		.eabi_attribute 18, 4
  13              		.file	"spi.c"
  14              		.text
  15              	.Ltext0:
  16              		.cfi_sections	.debug_frame
  17              		.section	.text.MX_SPI1_Init,"ax",%progbits
  18              		.align	1
  19              		.global	MX_SPI1_Init
  20              		.arch armv7e-m
  21              		.syntax unified
  22              		.thumb
  23              		.thumb_func
  24              		.fpu fpv4-sp-d16
  26              	MX_SPI1_Init:
  27              	.LFB130:
  28              		.file 1 "Core/Src/spi.c"
   1:Core/Src/spi.c **** /**
   2:Core/Src/spi.c ****   ******************************************************************************
   3:Core/Src/spi.c ****   * @file    spi.c
   4:Core/Src/spi.c ****   * @brief   This file provides code for the configuration
   5:Core/Src/spi.c ****   *          of the SPI instances.
   6:Core/Src/spi.c ****   ******************************************************************************
   7:Core/Src/spi.c ****   * @attention
   8:Core/Src/spi.c ****   *
   9:Core/Src/spi.c ****   * <h2><center>&copy; Copyright (c) 2022 STMicroelectronics.
  10:Core/Src/spi.c ****   * All rights reserved.</center></h2>
  11:Core/Src/spi.c ****   *
  12:Core/Src/spi.c ****   * This software component is licensed by ST under BSD 3-Clause license,
  13:Core/Src/spi.c ****   * the "License"; You may not use this file except in compliance with the
  14:Core/Src/spi.c ****   * License. You may obtain a copy of the License at:
  15:Core/Src/spi.c ****   *                        opensource.org/licenses/BSD-3-Clause
  16:Core/Src/spi.c ****   *
  17:Core/Src/spi.c ****   ******************************************************************************
  18:Core/Src/spi.c ****   */
  19:Core/Src/spi.c **** 
  20:Core/Src/spi.c **** /* Includes ------------------------------------------------------------------*/
  21:Core/Src/spi.c **** #include "spi.h"
  22:Core/Src/spi.c **** 
  23:Core/Src/spi.c **** /* USER CODE BEGIN 0 */
  24:Core/Src/spi.c **** 
  25:Core/Src/spi.c **** /* USER CODE END 0 */
  26:Core/Src/spi.c **** 
  27:Core/Src/spi.c **** SPI_HandleTypeDef hspi1;
  28:Core/Src/spi.c **** DMA_HandleTypeDef hdma_spi1_tx;
  29:Core/Src/spi.c **** 
  30:Core/Src/spi.c **** /* SPI1 init function */
ARM GAS  C:\Users\wucha\AppData\Local\Temp\cc1DVVy2.s 			page 2


  31:Core/Src/spi.c **** void MX_SPI1_Init(void)
  32:Core/Src/spi.c **** {
  29              		.loc 1 32 1 view -0
  30              		.cfi_startproc
  31              		@ args = 0, pretend = 0, frame = 0
  32              		@ frame_needed = 0, uses_anonymous_args = 0
  33 0000 08B5     		push	{r3, lr}
  34              	.LCFI0:
  35              		.cfi_def_cfa_offset 8
  36              		.cfi_offset 3, -8
  37              		.cfi_offset 14, -4
  33:Core/Src/spi.c **** 
  34:Core/Src/spi.c ****   /* USER CODE BEGIN SPI1_Init 0 */
  35:Core/Src/spi.c **** 
  36:Core/Src/spi.c ****   /* USER CODE END SPI1_Init 0 */
  37:Core/Src/spi.c **** 
  38:Core/Src/spi.c ****   /* USER CODE BEGIN SPI1_Init 1 */
  39:Core/Src/spi.c **** 
  40:Core/Src/spi.c ****   /* USER CODE END SPI1_Init 1 */
  41:Core/Src/spi.c ****   hspi1.Instance = SPI1;
  38              		.loc 1 41 3 view .LVU1
  39              		.loc 1 41 18 is_stmt 0 view .LVU2
  40 0002 1048     		ldr	r0, .L5
  41 0004 104B     		ldr	r3, .L5+4
  42 0006 0360     		str	r3, [r0]
  42:Core/Src/spi.c ****   hspi1.Init.Mode = SPI_MODE_MASTER;
  43              		.loc 1 42 3 is_stmt 1 view .LVU3
  44              		.loc 1 42 19 is_stmt 0 view .LVU4
  45 0008 4FF48273 		mov	r3, #260
  46 000c 4360     		str	r3, [r0, #4]
  43:Core/Src/spi.c ****   hspi1.Init.Direction = SPI_DIRECTION_1LINE;
  47              		.loc 1 43 3 is_stmt 1 view .LVU5
  48              		.loc 1 43 24 is_stmt 0 view .LVU6
  49 000e 4FF40043 		mov	r3, #32768
  50 0012 8360     		str	r3, [r0, #8]
  44:Core/Src/spi.c ****   hspi1.Init.DataSize = SPI_DATASIZE_8BIT;
  51              		.loc 1 44 3 is_stmt 1 view .LVU7
  52              		.loc 1 44 23 is_stmt 0 view .LVU8
  53 0014 0023     		movs	r3, #0
  54 0016 C360     		str	r3, [r0, #12]
  45:Core/Src/spi.c ****   hspi1.Init.CLKPolarity = SPI_POLARITY_HIGH;
  55              		.loc 1 45 3 is_stmt 1 view .LVU9
  56              		.loc 1 45 26 is_stmt 0 view .LVU10
  57 0018 0222     		movs	r2, #2
  58 001a 0261     		str	r2, [r0, #16]
  46:Core/Src/spi.c ****   hspi1.Init.CLKPhase = SPI_PHASE_2EDGE;
  59              		.loc 1 46 3 is_stmt 1 view .LVU11
  60              		.loc 1 46 23 is_stmt 0 view .LVU12
  61 001c 0122     		movs	r2, #1
  62 001e 4261     		str	r2, [r0, #20]
  47:Core/Src/spi.c ****   hspi1.Init.NSS = SPI_NSS_SOFT;
  63              		.loc 1 47 3 is_stmt 1 view .LVU13
  64              		.loc 1 47 18 is_stmt 0 view .LVU14
  65 0020 4FF40072 		mov	r2, #512
  66 0024 8261     		str	r2, [r0, #24]
  48:Core/Src/spi.c ****   hspi1.Init.BaudRatePrescaler = SPI_BAUDRATEPRESCALER_32;
  67              		.loc 1 48 3 is_stmt 1 view .LVU15
ARM GAS  C:\Users\wucha\AppData\Local\Temp\cc1DVVy2.s 			page 3


  68              		.loc 1 48 32 is_stmt 0 view .LVU16
  69 0026 2022     		movs	r2, #32
  70 0028 C261     		str	r2, [r0, #28]
  49:Core/Src/spi.c ****   hspi1.Init.FirstBit = SPI_FIRSTBIT_MSB;
  71              		.loc 1 49 3 is_stmt 1 view .LVU17
  72              		.loc 1 49 23 is_stmt 0 view .LVU18
  73 002a 0362     		str	r3, [r0, #32]
  50:Core/Src/spi.c ****   hspi1.Init.TIMode = SPI_TIMODE_DISABLE;
  74              		.loc 1 50 3 is_stmt 1 view .LVU19
  75              		.loc 1 50 21 is_stmt 0 view .LVU20
  76 002c 4362     		str	r3, [r0, #36]
  51:Core/Src/spi.c ****   hspi1.Init.CRCCalculation = SPI_CRCCALCULATION_DISABLE;
  77              		.loc 1 51 3 is_stmt 1 view .LVU21
  78              		.loc 1 51 29 is_stmt 0 view .LVU22
  79 002e 8362     		str	r3, [r0, #40]
  52:Core/Src/spi.c ****   hspi1.Init.CRCPolynomial = 10;
  80              		.loc 1 52 3 is_stmt 1 view .LVU23
  81              		.loc 1 52 28 is_stmt 0 view .LVU24
  82 0030 0A23     		movs	r3, #10
  83 0032 C362     		str	r3, [r0, #44]
  53:Core/Src/spi.c ****   if (HAL_SPI_Init(&hspi1) != HAL_OK)
  84              		.loc 1 53 3 is_stmt 1 view .LVU25
  85              		.loc 1 53 7 is_stmt 0 view .LVU26
  86 0034 FFF7FEFF 		bl	HAL_SPI_Init
  87              	.LVL0:
  88              		.loc 1 53 6 view .LVU27
  89 0038 00B9     		cbnz	r0, .L4
  90              	.L1:
  54:Core/Src/spi.c ****   {
  55:Core/Src/spi.c ****     Error_Handler();
  56:Core/Src/spi.c ****   }
  57:Core/Src/spi.c ****   /* USER CODE BEGIN SPI1_Init 2 */
  58:Core/Src/spi.c **** 
  59:Core/Src/spi.c ****   /* USER CODE END SPI1_Init 2 */
  60:Core/Src/spi.c **** 
  61:Core/Src/spi.c **** }
  91              		.loc 1 61 1 view .LVU28
  92 003a 08BD     		pop	{r3, pc}
  93              	.L4:
  55:Core/Src/spi.c ****   }
  94              		.loc 1 55 5 is_stmt 1 view .LVU29
  95 003c FFF7FEFF 		bl	Error_Handler
  96              	.LVL1:
  97              		.loc 1 61 1 is_stmt 0 view .LVU30
  98 0040 FBE7     		b	.L1
  99              	.L6:
 100 0042 00BF     		.align	2
 101              	.L5:
 102 0044 00000000 		.word	.LANCHOR0
 103 0048 00300140 		.word	1073819648
 104              		.cfi_endproc
 105              	.LFE130:
 107              		.section	.text.HAL_SPI_MspInit,"ax",%progbits
 108              		.align	1
 109              		.global	HAL_SPI_MspInit
 110              		.syntax unified
 111              		.thumb
ARM GAS  C:\Users\wucha\AppData\Local\Temp\cc1DVVy2.s 			page 4


 112              		.thumb_func
 113              		.fpu fpv4-sp-d16
 115              	HAL_SPI_MspInit:
 116              	.LVL2:
 117              	.LFB131:
  62:Core/Src/spi.c **** 
  63:Core/Src/spi.c **** void HAL_SPI_MspInit(SPI_HandleTypeDef* spiHandle)
  64:Core/Src/spi.c **** {
 118              		.loc 1 64 1 is_stmt 1 view -0
 119              		.cfi_startproc
 120              		@ args = 0, pretend = 0, frame = 32
 121              		@ frame_needed = 0, uses_anonymous_args = 0
 122              		.loc 1 64 1 is_stmt 0 view .LVU32
 123 0000 30B5     		push	{r4, r5, lr}
 124              	.LCFI1:
 125              		.cfi_def_cfa_offset 12
 126              		.cfi_offset 4, -12
 127              		.cfi_offset 5, -8
 128              		.cfi_offset 14, -4
 129 0002 89B0     		sub	sp, sp, #36
 130              	.LCFI2:
 131              		.cfi_def_cfa_offset 48
  65:Core/Src/spi.c **** 
  66:Core/Src/spi.c ****   GPIO_InitTypeDef GPIO_InitStruct = {0};
 132              		.loc 1 66 3 is_stmt 1 view .LVU33
 133              		.loc 1 66 20 is_stmt 0 view .LVU34
 134 0004 0023     		movs	r3, #0
 135 0006 0393     		str	r3, [sp, #12]
 136 0008 0493     		str	r3, [sp, #16]
 137 000a 0593     		str	r3, [sp, #20]
 138 000c 0693     		str	r3, [sp, #24]
 139 000e 0793     		str	r3, [sp, #28]
  67:Core/Src/spi.c ****   if(spiHandle->Instance==SPI1)
 140              		.loc 1 67 3 is_stmt 1 view .LVU35
 141              		.loc 1 67 15 is_stmt 0 view .LVU36
 142 0010 0268     		ldr	r2, [r0]
 143              		.loc 1 67 5 view .LVU37
 144 0012 264B     		ldr	r3, .L13
 145 0014 9A42     		cmp	r2, r3
 146 0016 01D0     		beq	.L11
 147              	.LVL3:
 148              	.L7:
  68:Core/Src/spi.c ****   {
  69:Core/Src/spi.c ****   /* USER CODE BEGIN SPI1_MspInit 0 */
  70:Core/Src/spi.c **** 
  71:Core/Src/spi.c ****   /* USER CODE END SPI1_MspInit 0 */
  72:Core/Src/spi.c ****     /* SPI1 clock enable */
  73:Core/Src/spi.c ****     __HAL_RCC_SPI1_CLK_ENABLE();
  74:Core/Src/spi.c **** 
  75:Core/Src/spi.c ****     __HAL_RCC_GPIOA_CLK_ENABLE();
  76:Core/Src/spi.c ****     /**SPI1 GPIO Configuration
  77:Core/Src/spi.c ****     PA5     ------> SPI1_SCK
  78:Core/Src/spi.c ****     PA7     ------> SPI1_MOSI
  79:Core/Src/spi.c ****     */
  80:Core/Src/spi.c ****     GPIO_InitStruct.Pin = GPIO_PIN_5|GPIO_PIN_7;
  81:Core/Src/spi.c ****     GPIO_InitStruct.Mode = GPIO_MODE_AF_PP;
  82:Core/Src/spi.c ****     GPIO_InitStruct.Pull = GPIO_NOPULL;
ARM GAS  C:\Users\wucha\AppData\Local\Temp\cc1DVVy2.s 			page 5


  83:Core/Src/spi.c ****     GPIO_InitStruct.Speed = GPIO_SPEED_FREQ_VERY_HIGH;
  84:Core/Src/spi.c ****     GPIO_InitStruct.Alternate = GPIO_AF5_SPI1;
  85:Core/Src/spi.c ****     HAL_GPIO_Init(GPIOA, &GPIO_InitStruct);
  86:Core/Src/spi.c **** 
  87:Core/Src/spi.c ****     /* SPI1 DMA Init */
  88:Core/Src/spi.c ****     /* SPI1_TX Init */
  89:Core/Src/spi.c ****     hdma_spi1_tx.Instance = DMA2_Stream3;
  90:Core/Src/spi.c ****     hdma_spi1_tx.Init.Channel = DMA_CHANNEL_3;
  91:Core/Src/spi.c ****     hdma_spi1_tx.Init.Direction = DMA_MEMORY_TO_PERIPH;
  92:Core/Src/spi.c ****     hdma_spi1_tx.Init.PeriphInc = DMA_PINC_DISABLE;
  93:Core/Src/spi.c ****     hdma_spi1_tx.Init.MemInc = DMA_MINC_ENABLE;
  94:Core/Src/spi.c ****     hdma_spi1_tx.Init.PeriphDataAlignment = DMA_PDATAALIGN_BYTE;
  95:Core/Src/spi.c ****     hdma_spi1_tx.Init.MemDataAlignment = DMA_MDATAALIGN_BYTE;
  96:Core/Src/spi.c ****     hdma_spi1_tx.Init.Mode = DMA_NORMAL;
  97:Core/Src/spi.c ****     hdma_spi1_tx.Init.Priority = DMA_PRIORITY_LOW;
  98:Core/Src/spi.c ****     hdma_spi1_tx.Init.FIFOMode = DMA_FIFOMODE_DISABLE;
  99:Core/Src/spi.c ****     if (HAL_DMA_Init(&hdma_spi1_tx) != HAL_OK)
 100:Core/Src/spi.c ****     {
 101:Core/Src/spi.c ****       Error_Handler();
 102:Core/Src/spi.c ****     }
 103:Core/Src/spi.c **** 
 104:Core/Src/spi.c ****     __HAL_LINKDMA(spiHandle,hdmatx,hdma_spi1_tx);
 105:Core/Src/spi.c **** 
 106:Core/Src/spi.c ****     /* SPI1 interrupt Init */
 107:Core/Src/spi.c ****     HAL_NVIC_SetPriority(SPI1_IRQn, 0, 0);
 108:Core/Src/spi.c ****     HAL_NVIC_EnableIRQ(SPI1_IRQn);
 109:Core/Src/spi.c ****   /* USER CODE BEGIN SPI1_MspInit 1 */
 110:Core/Src/spi.c **** 
 111:Core/Src/spi.c ****   /* USER CODE END SPI1_MspInit 1 */
 112:Core/Src/spi.c ****   }
 113:Core/Src/spi.c **** }
 149              		.loc 1 113 1 view .LVU38
 150 0018 09B0     		add	sp, sp, #36
 151              	.LCFI3:
 152              		.cfi_remember_state
 153              		.cfi_def_cfa_offset 12
 154              		@ sp needed
 155 001a 30BD     		pop	{r4, r5, pc}
 156              	.LVL4:
 157              	.L11:
 158              	.LCFI4:
 159              		.cfi_restore_state
 160              		.loc 1 113 1 view .LVU39
 161 001c 0446     		mov	r4, r0
  73:Core/Src/spi.c **** 
 162              		.loc 1 73 5 is_stmt 1 view .LVU40
 163              	.LBB2:
  73:Core/Src/spi.c **** 
 164              		.loc 1 73 5 view .LVU41
 165 001e 0025     		movs	r5, #0
 166 0020 0195     		str	r5, [sp, #4]
  73:Core/Src/spi.c **** 
 167              		.loc 1 73 5 view .LVU42
 168 0022 03F58433 		add	r3, r3, #67584
 169 0026 5A6C     		ldr	r2, [r3, #68]
 170 0028 42F48052 		orr	r2, r2, #4096
 171 002c 5A64     		str	r2, [r3, #68]
ARM GAS  C:\Users\wucha\AppData\Local\Temp\cc1DVVy2.s 			page 6


  73:Core/Src/spi.c **** 
 172              		.loc 1 73 5 view .LVU43
 173 002e 5A6C     		ldr	r2, [r3, #68]
 174 0030 02F48052 		and	r2, r2, #4096
 175 0034 0192     		str	r2, [sp, #4]
  73:Core/Src/spi.c **** 
 176              		.loc 1 73 5 view .LVU44
 177 0036 019A     		ldr	r2, [sp, #4]
 178              	.LBE2:
  73:Core/Src/spi.c **** 
 179              		.loc 1 73 5 view .LVU45
  75:Core/Src/spi.c ****     /**SPI1 GPIO Configuration
 180              		.loc 1 75 5 view .LVU46
 181              	.LBB3:
  75:Core/Src/spi.c ****     /**SPI1 GPIO Configuration
 182              		.loc 1 75 5 view .LVU47
 183 0038 0295     		str	r5, [sp, #8]
  75:Core/Src/spi.c ****     /**SPI1 GPIO Configuration
 184              		.loc 1 75 5 view .LVU48
 185 003a 1A6B     		ldr	r2, [r3, #48]
 186 003c 42F00102 		orr	r2, r2, #1
 187 0040 1A63     		str	r2, [r3, #48]
  75:Core/Src/spi.c ****     /**SPI1 GPIO Configuration
 188              		.loc 1 75 5 view .LVU49
 189 0042 1B6B     		ldr	r3, [r3, #48]
 190 0044 03F00103 		and	r3, r3, #1
 191 0048 0293     		str	r3, [sp, #8]
  75:Core/Src/spi.c ****     /**SPI1 GPIO Configuration
 192              		.loc 1 75 5 view .LVU50
 193 004a 029B     		ldr	r3, [sp, #8]
 194              	.LBE3:
  75:Core/Src/spi.c ****     /**SPI1 GPIO Configuration
 195              		.loc 1 75 5 view .LVU51
  80:Core/Src/spi.c ****     GPIO_InitStruct.Mode = GPIO_MODE_AF_PP;
 196              		.loc 1 80 5 view .LVU52
  80:Core/Src/spi.c ****     GPIO_InitStruct.Mode = GPIO_MODE_AF_PP;
 197              		.loc 1 80 25 is_stmt 0 view .LVU53
 198 004c A023     		movs	r3, #160
 199 004e 0393     		str	r3, [sp, #12]
  81:Core/Src/spi.c ****     GPIO_InitStruct.Pull = GPIO_NOPULL;
 200              		.loc 1 81 5 is_stmt 1 view .LVU54
  81:Core/Src/spi.c ****     GPIO_InitStruct.Pull = GPIO_NOPULL;
 201              		.loc 1 81 26 is_stmt 0 view .LVU55
 202 0050 0223     		movs	r3, #2
 203 0052 0493     		str	r3, [sp, #16]
  82:Core/Src/spi.c ****     GPIO_InitStruct.Speed = GPIO_SPEED_FREQ_VERY_HIGH;
 204              		.loc 1 82 5 is_stmt 1 view .LVU56
  83:Core/Src/spi.c ****     GPIO_InitStruct.Alternate = GPIO_AF5_SPI1;
 205              		.loc 1 83 5 view .LVU57
  83:Core/Src/spi.c ****     GPIO_InitStruct.Alternate = GPIO_AF5_SPI1;
 206              		.loc 1 83 27 is_stmt 0 view .LVU58
 207 0054 0323     		movs	r3, #3
 208 0056 0693     		str	r3, [sp, #24]
  84:Core/Src/spi.c ****     HAL_GPIO_Init(GPIOA, &GPIO_InitStruct);
 209              		.loc 1 84 5 is_stmt 1 view .LVU59
  84:Core/Src/spi.c ****     HAL_GPIO_Init(GPIOA, &GPIO_InitStruct);
 210              		.loc 1 84 31 is_stmt 0 view .LVU60
ARM GAS  C:\Users\wucha\AppData\Local\Temp\cc1DVVy2.s 			page 7


 211 0058 0523     		movs	r3, #5
 212 005a 0793     		str	r3, [sp, #28]
  85:Core/Src/spi.c **** 
 213              		.loc 1 85 5 is_stmt 1 view .LVU61
 214 005c 03A9     		add	r1, sp, #12
 215 005e 1448     		ldr	r0, .L13+4
 216              	.LVL5:
  85:Core/Src/spi.c **** 
 217              		.loc 1 85 5 is_stmt 0 view .LVU62
 218 0060 FFF7FEFF 		bl	HAL_GPIO_Init
 219              	.LVL6:
  89:Core/Src/spi.c ****     hdma_spi1_tx.Init.Channel = DMA_CHANNEL_3;
 220              		.loc 1 89 5 is_stmt 1 view .LVU63
  89:Core/Src/spi.c ****     hdma_spi1_tx.Init.Channel = DMA_CHANNEL_3;
 221              		.loc 1 89 27 is_stmt 0 view .LVU64
 222 0064 1348     		ldr	r0, .L13+8
 223 0066 144B     		ldr	r3, .L13+12
 224 0068 0360     		str	r3, [r0]
  90:Core/Src/spi.c ****     hdma_spi1_tx.Init.Direction = DMA_MEMORY_TO_PERIPH;
 225              		.loc 1 90 5 is_stmt 1 view .LVU65
  90:Core/Src/spi.c ****     hdma_spi1_tx.Init.Direction = DMA_MEMORY_TO_PERIPH;
 226              		.loc 1 90 31 is_stmt 0 view .LVU66
 227 006a 4FF0C063 		mov	r3, #100663296
 228 006e 4360     		str	r3, [r0, #4]
  91:Core/Src/spi.c ****     hdma_spi1_tx.Init.PeriphInc = DMA_PINC_DISABLE;
 229              		.loc 1 91 5 is_stmt 1 view .LVU67
  91:Core/Src/spi.c ****     hdma_spi1_tx.Init.PeriphInc = DMA_PINC_DISABLE;
 230              		.loc 1 91 33 is_stmt 0 view .LVU68
 231 0070 4023     		movs	r3, #64
 232 0072 8360     		str	r3, [r0, #8]
  92:Core/Src/spi.c ****     hdma_spi1_tx.Init.MemInc = DMA_MINC_ENABLE;
 233              		.loc 1 92 5 is_stmt 1 view .LVU69
  92:Core/Src/spi.c ****     hdma_spi1_tx.Init.MemInc = DMA_MINC_ENABLE;
 234              		.loc 1 92 33 is_stmt 0 view .LVU70
 235 0074 C560     		str	r5, [r0, #12]
  93:Core/Src/spi.c ****     hdma_spi1_tx.Init.PeriphDataAlignment = DMA_PDATAALIGN_BYTE;
 236              		.loc 1 93 5 is_stmt 1 view .LVU71
  93:Core/Src/spi.c ****     hdma_spi1_tx.Init.PeriphDataAlignment = DMA_PDATAALIGN_BYTE;
 237              		.loc 1 93 30 is_stmt 0 view .LVU72
 238 0076 4FF48063 		mov	r3, #1024
 239 007a 0361     		str	r3, [r0, #16]
  94:Core/Src/spi.c ****     hdma_spi1_tx.Init.MemDataAlignment = DMA_MDATAALIGN_BYTE;
 240              		.loc 1 94 5 is_stmt 1 view .LVU73
  94:Core/Src/spi.c ****     hdma_spi1_tx.Init.MemDataAlignment = DMA_MDATAALIGN_BYTE;
 241              		.loc 1 94 43 is_stmt 0 view .LVU74
 242 007c 4561     		str	r5, [r0, #20]
  95:Core/Src/spi.c ****     hdma_spi1_tx.Init.Mode = DMA_NORMAL;
 243              		.loc 1 95 5 is_stmt 1 view .LVU75
  95:Core/Src/spi.c ****     hdma_spi1_tx.Init.Mode = DMA_NORMAL;
 244              		.loc 1 95 40 is_stmt 0 view .LVU76
 245 007e 8561     		str	r5, [r0, #24]
  96:Core/Src/spi.c ****     hdma_spi1_tx.Init.Priority = DMA_PRIORITY_LOW;
 246              		.loc 1 96 5 is_stmt 1 view .LVU77
  96:Core/Src/spi.c ****     hdma_spi1_tx.Init.Priority = DMA_PRIORITY_LOW;
 247              		.loc 1 96 28 is_stmt 0 view .LVU78
 248 0080 C561     		str	r5, [r0, #28]
  97:Core/Src/spi.c ****     hdma_spi1_tx.Init.FIFOMode = DMA_FIFOMODE_DISABLE;
ARM GAS  C:\Users\wucha\AppData\Local\Temp\cc1DVVy2.s 			page 8


 249              		.loc 1 97 5 is_stmt 1 view .LVU79
  97:Core/Src/spi.c ****     hdma_spi1_tx.Init.FIFOMode = DMA_FIFOMODE_DISABLE;
 250              		.loc 1 97 32 is_stmt 0 view .LVU80
 251 0082 0562     		str	r5, [r0, #32]
  98:Core/Src/spi.c ****     if (HAL_DMA_Init(&hdma_spi1_tx) != HAL_OK)
 252              		.loc 1 98 5 is_stmt 1 view .LVU81
  98:Core/Src/spi.c ****     if (HAL_DMA_Init(&hdma_spi1_tx) != HAL_OK)
 253              		.loc 1 98 32 is_stmt 0 view .LVU82
 254 0084 4562     		str	r5, [r0, #36]
  99:Core/Src/spi.c ****     {
 255              		.loc 1 99 5 is_stmt 1 view .LVU83
  99:Core/Src/spi.c ****     {
 256              		.loc 1 99 9 is_stmt 0 view .LVU84
 257 0086 FFF7FEFF 		bl	HAL_DMA_Init
 258              	.LVL7:
  99:Core/Src/spi.c ****     {
 259              		.loc 1 99 8 view .LVU85
 260 008a 58B9     		cbnz	r0, .L12
 261              	.L9:
 104:Core/Src/spi.c **** 
 262              		.loc 1 104 5 is_stmt 1 view .LVU86
 104:Core/Src/spi.c **** 
 263              		.loc 1 104 5 view .LVU87
 264 008c 094B     		ldr	r3, .L13+8
 265 008e A364     		str	r3, [r4, #72]
 104:Core/Src/spi.c **** 
 266              		.loc 1 104 5 view .LVU88
 267 0090 9C63     		str	r4, [r3, #56]
 104:Core/Src/spi.c **** 
 268              		.loc 1 104 5 view .LVU89
 107:Core/Src/spi.c ****     HAL_NVIC_EnableIRQ(SPI1_IRQn);
 269              		.loc 1 107 5 view .LVU90
 270 0092 0022     		movs	r2, #0
 271 0094 1146     		mov	r1, r2
 272 0096 2320     		movs	r0, #35
 273 0098 FFF7FEFF 		bl	HAL_NVIC_SetPriority
 274              	.LVL8:
 108:Core/Src/spi.c ****   /* USER CODE BEGIN SPI1_MspInit 1 */
 275              		.loc 1 108 5 view .LVU91
 276 009c 2320     		movs	r0, #35
 277 009e FFF7FEFF 		bl	HAL_NVIC_EnableIRQ
 278              	.LVL9:
 279              		.loc 1 113 1 is_stmt 0 view .LVU92
 280 00a2 B9E7     		b	.L7
 281              	.L12:
 101:Core/Src/spi.c ****     }
 282              		.loc 1 101 7 is_stmt 1 view .LVU93
 283 00a4 FFF7FEFF 		bl	Error_Handler
 284              	.LVL10:
 285 00a8 F0E7     		b	.L9
 286              	.L14:
 287 00aa 00BF     		.align	2
 288              	.L13:
 289 00ac 00300140 		.word	1073819648
 290 00b0 00000240 		.word	1073872896
 291 00b4 00000000 		.word	.LANCHOR1
 292 00b8 58640240 		.word	1073898584
ARM GAS  C:\Users\wucha\AppData\Local\Temp\cc1DVVy2.s 			page 9


 293              		.cfi_endproc
 294              	.LFE131:
 296              		.section	.text.HAL_SPI_MspDeInit,"ax",%progbits
 297              		.align	1
 298              		.global	HAL_SPI_MspDeInit
 299              		.syntax unified
 300              		.thumb
 301              		.thumb_func
 302              		.fpu fpv4-sp-d16
 304              	HAL_SPI_MspDeInit:
 305              	.LVL11:
 306              	.LFB132:
 114:Core/Src/spi.c **** 
 115:Core/Src/spi.c **** void HAL_SPI_MspDeInit(SPI_HandleTypeDef* spiHandle)
 116:Core/Src/spi.c **** {
 307              		.loc 1 116 1 view -0
 308              		.cfi_startproc
 309              		@ args = 0, pretend = 0, frame = 0
 310              		@ frame_needed = 0, uses_anonymous_args = 0
 117:Core/Src/spi.c **** 
 118:Core/Src/spi.c ****   if(spiHandle->Instance==SPI1)
 311              		.loc 1 118 3 view .LVU95
 312              		.loc 1 118 15 is_stmt 0 view .LVU96
 313 0000 0268     		ldr	r2, [r0]
 314              		.loc 1 118 5 view .LVU97
 315 0002 0B4B     		ldr	r3, .L22
 316 0004 9A42     		cmp	r2, r3
 317 0006 00D0     		beq	.L21
 318 0008 7047     		bx	lr
 319              	.L21:
 116:Core/Src/spi.c **** 
 320              		.loc 1 116 1 view .LVU98
 321 000a 10B5     		push	{r4, lr}
 322              	.LCFI5:
 323              		.cfi_def_cfa_offset 8
 324              		.cfi_offset 4, -8
 325              		.cfi_offset 14, -4
 326 000c 0446     		mov	r4, r0
 119:Core/Src/spi.c ****   {
 120:Core/Src/spi.c ****   /* USER CODE BEGIN SPI1_MspDeInit 0 */
 121:Core/Src/spi.c **** 
 122:Core/Src/spi.c ****   /* USER CODE END SPI1_MspDeInit 0 */
 123:Core/Src/spi.c ****     /* Peripheral clock disable */
 124:Core/Src/spi.c ****     __HAL_RCC_SPI1_CLK_DISABLE();
 327              		.loc 1 124 5 is_stmt 1 view .LVU99
 328 000e 094A     		ldr	r2, .L22+4
 329 0010 536C     		ldr	r3, [r2, #68]
 330 0012 23F48053 		bic	r3, r3, #4096
 331 0016 5364     		str	r3, [r2, #68]
 125:Core/Src/spi.c **** 
 126:Core/Src/spi.c ****     /**SPI1 GPIO Configuration
 127:Core/Src/spi.c ****     PA5     ------> SPI1_SCK
 128:Core/Src/spi.c ****     PA7     ------> SPI1_MOSI
 129:Core/Src/spi.c ****     */
 130:Core/Src/spi.c ****     HAL_GPIO_DeInit(GPIOA, GPIO_PIN_5|GPIO_PIN_7);
 332              		.loc 1 130 5 view .LVU100
 333 0018 A021     		movs	r1, #160
ARM GAS  C:\Users\wucha\AppData\Local\Temp\cc1DVVy2.s 			page 10


 334 001a 0748     		ldr	r0, .L22+8
 335              	.LVL12:
 336              		.loc 1 130 5 is_stmt 0 view .LVU101
 337 001c FFF7FEFF 		bl	HAL_GPIO_DeInit
 338              	.LVL13:
 131:Core/Src/spi.c **** 
 132:Core/Src/spi.c ****     /* SPI1 DMA DeInit */
 133:Core/Src/spi.c ****     HAL_DMA_DeInit(spiHandle->hdmatx);
 339              		.loc 1 133 5 is_stmt 1 view .LVU102
 340 0020 A06C     		ldr	r0, [r4, #72]
 341 0022 FFF7FEFF 		bl	HAL_DMA_DeInit
 342              	.LVL14:
 134:Core/Src/spi.c **** 
 135:Core/Src/spi.c ****     /* SPI1 interrupt Deinit */
 136:Core/Src/spi.c ****     HAL_NVIC_DisableIRQ(SPI1_IRQn);
 343              		.loc 1 136 5 view .LVU103
 344 0026 2320     		movs	r0, #35
 345 0028 FFF7FEFF 		bl	HAL_NVIC_DisableIRQ
 346              	.LVL15:
 137:Core/Src/spi.c ****   /* USER CODE BEGIN SPI1_MspDeInit 1 */
 138:Core/Src/spi.c **** 
 139:Core/Src/spi.c ****   /* USER CODE END SPI1_MspDeInit 1 */
 140:Core/Src/spi.c ****   }
 141:Core/Src/spi.c **** }
 347              		.loc 1 141 1 is_stmt 0 view .LVU104
 348 002c 10BD     		pop	{r4, pc}
 349              	.LVL16:
 350              	.L23:
 351              		.loc 1 141 1 view .LVU105
 352 002e 00BF     		.align	2
 353              	.L22:
 354 0030 00300140 		.word	1073819648
 355 0034 00380240 		.word	1073887232
 356 0038 00000240 		.word	1073872896
 357              		.cfi_endproc
 358              	.LFE132:
 360              		.global	hdma_spi1_tx
 361              		.global	hspi1
 362              		.section	.bss.hdma_spi1_tx,"aw",%nobits
 363              		.align	2
 364              		.set	.LANCHOR1,. + 0
 367              	hdma_spi1_tx:
 368 0000 00000000 		.space	96
 368      00000000 
 368      00000000 
 368      00000000 
 368      00000000 
 369              		.section	.bss.hspi1,"aw",%nobits
 370              		.align	2
 371              		.set	.LANCHOR0,. + 0
 374              	hspi1:
 375 0000 00000000 		.space	88
 375      00000000 
 375      00000000 
 375      00000000 
 375      00000000 
 376              		.text
ARM GAS  C:\Users\wucha\AppData\Local\Temp\cc1DVVy2.s 			page 11


 377              	.Letext0:
 378              		.file 2 "c:\\program files (x86)\\gnu arm embedded toolchain\\10 2021.07\\arm-none-eabi\\include\\
 379              		.file 3 "c:\\program files (x86)\\gnu arm embedded toolchain\\10 2021.07\\arm-none-eabi\\include\\
 380              		.file 4 "Drivers/CMSIS/Device/ST/STM32F4xx/Include/stm32f405xx.h"
 381              		.file 5 "Drivers/STM32F4xx_HAL_Driver/Inc/stm32f4xx_hal_def.h"
 382              		.file 6 "Drivers/STM32F4xx_HAL_Driver/Inc/stm32f4xx_hal_gpio.h"
 383              		.file 7 "Drivers/STM32F4xx_HAL_Driver/Inc/stm32f4xx_hal_dma.h"
 384              		.file 8 "Drivers/STM32F4xx_HAL_Driver/Inc/stm32f4xx_hal_spi.h"
 385              		.file 9 "Core/Inc/spi.h"
 386              		.file 10 "Drivers/STM32F4xx_HAL_Driver/Inc/stm32f4xx_hal_cortex.h"
 387              		.file 11 "Core/Inc/main.h"
ARM GAS  C:\Users\wucha\AppData\Local\Temp\cc1DVVy2.s 			page 12

