ARM GAS  C:\Users\wucha\AppData\Local\Temp\ccDMtPZY.s 			page 1


   1              		.cpu cortex-m4
   2              		.eabi_attribute 27, 1
   3              		.eabi_attribute 28, 1
   4              		.eabi_attribute 20, 1
   5              		.eabi_attribute 21, 1
   6              		.eabi_attribute 23, 3
   7              		.eabi_attribute 24, 1
   8              		.eabi_attribute 25, 1
   9              		.eabi_attribute 26, 1
  10              		.eabi_attribute 30, 1
  11              		.eabi_attribute 34, 1
  12              		.eabi_attribute 18, 4
  13              		.file	"ssd1306.c"
  14              		.text
  15              	.Ltext0:
  16              		.cfi_sections	.debug_frame
  17              		.section	.text.spi_sendbyte,"ax",%progbits
  18              		.align	1
  19              		.global	spi_sendbyte
  20              		.arch armv7e-m
  21              		.syntax unified
  22              		.thumb
  23              		.thumb_func
  24              		.fpu fpv4-sp-d16
  26              	spi_sendbyte:
  27              	.LVL0:
  28              	.LFB131:
  29              		.file 1 "Core/ssd1306/ssd1306.c"
   1:Core/ssd1306/ssd1306.c **** /*
   2:Core/ssd1306/ssd1306.c **** By Samosn Wu
   3:Core/ssd1306/ssd1306.c **** */
   4:Core/ssd1306/ssd1306.c **** #include "ssd1306.h"
   5:Core/ssd1306/ssd1306.c **** 
   6:Core/ssd1306/ssd1306.c **** void ssd1306_init()
   7:Core/ssd1306/ssd1306.c **** {
   8:Core/ssd1306/ssd1306.c ****     HAL_GPIO_WritePin(OLED_DC, 1);
   9:Core/ssd1306/ssd1306.c ****     HAL_GPIO_WritePin(OLED_CS, 1);
  10:Core/ssd1306/ssd1306.c ****     HAL_GPIO_WritePin(OLED_RES, 1);
  11:Core/ssd1306/ssd1306.c ****     HAL_Delay(1);
  12:Core/ssd1306/ssd1306.c ****     HAL_GPIO_WritePin(OLED_RES, 0);
  13:Core/ssd1306/ssd1306.c ****     HAL_Delay(3);
  14:Core/ssd1306/ssd1306.c ****     HAL_GPIO_WritePin(OLED_RES, 1);
  15:Core/ssd1306/ssd1306.c **** 
  16:Core/ssd1306/ssd1306.c ****     HAL_Delay(100);
  17:Core/ssd1306/ssd1306.c **** 
  18:Core/ssd1306/ssd1306.c ****     oled_writecmd(0xAE);
  19:Core/ssd1306/ssd1306.c **** 
  20:Core/ssd1306/ssd1306.c **** 	//set osc frequency
  21:Core/ssd1306/ssd1306.c ****     oled_writecmd(0xD5);
  22:Core/ssd1306/ssd1306.c ****     oled_writecmd(0x80);
  23:Core/ssd1306/ssd1306.c **** 
  24:Core/ssd1306/ssd1306.c **** 	// set mux ratio	
  25:Core/ssd1306/ssd1306.c ****     oled_writecmd(0xA8);
  26:Core/ssd1306/ssd1306.c ****     oled_writecmd(0x3F);
  27:Core/ssd1306/ssd1306.c **** 
  28:Core/ssd1306/ssd1306.c **** 	//set display offest
  29:Core/ssd1306/ssd1306.c ****     oled_writecmd(0xD3);
ARM GAS  C:\Users\wucha\AppData\Local\Temp\ccDMtPZY.s 			page 2


  30:Core/ssd1306/ssd1306.c ****     oled_writecmd(0x00);
  31:Core/ssd1306/ssd1306.c **** 
  32:Core/ssd1306/ssd1306.c **** 	//enable charge pump regulator
  33:Core/ssd1306/ssd1306.c ****     oled_writecmd(0x8D);
  34:Core/ssd1306/ssd1306.c ****     oled_writecmd(0x14);
  35:Core/ssd1306/ssd1306.c ****     
  36:Core/ssd1306/ssd1306.c ****     //set the memory mode
  37:Core/ssd1306/ssd1306.c **** 	oled_writecmd(0x20);
  38:Core/ssd1306/ssd1306.c **** 	oled_writecmd(0x00);
  39:Core/ssd1306/ssd1306.c **** 
  40:Core/ssd1306/ssd1306.c **** 	//set segment re-map
  41:Core/ssd1306/ssd1306.c ****     oled_writecmd(0xA1);
  42:Core/ssd1306/ssd1306.c **** 
  43:Core/ssd1306/ssd1306.c **** 	//set com output scan direction
  44:Core/ssd1306/ssd1306.c ****     oled_writecmd(0xC8);
  45:Core/ssd1306/ssd1306.c **** 	
  46:Core/ssd1306/ssd1306.c **** 	//set com pins hardware configuration
  47:Core/ssd1306/ssd1306.c ****     oled_writecmd(0xDA);
  48:Core/ssd1306/ssd1306.c ****     oled_writecmd(0x12);
  49:Core/ssd1306/ssd1306.c **** 
  50:Core/ssd1306/ssd1306.c **** 	//set contrast control
  51:Core/ssd1306/ssd1306.c ****     oled_writecmd(0x81);
  52:Core/ssd1306/ssd1306.c ****     oled_writecmd(0xCF);
  53:Core/ssd1306/ssd1306.c **** 
  54:Core/ssd1306/ssd1306.c ****     oled_writedata(0xD9);
  55:Core/ssd1306/ssd1306.c ****     oled_writedata(0xF1);
  56:Core/ssd1306/ssd1306.c **** 
  57:Core/ssd1306/ssd1306.c ****     oled_writedata(0xDb);
  58:Core/ssd1306/ssd1306.c ****     oled_writedata(0x40);
  59:Core/ssd1306/ssd1306.c **** 
  60:Core/ssd1306/ssd1306.c **** 	//diable entire diasplay on
  61:Core/ssd1306/ssd1306.c ****     oled_writecmd(0xA4);
  62:Core/ssd1306/ssd1306.c **** 
  63:Core/ssd1306/ssd1306.c **** 	//set normal display 
  64:Core/ssd1306/ssd1306.c ****     oled_writecmd(0xA6);
  65:Core/ssd1306/ssd1306.c **** 
  66:Core/ssd1306/ssd1306.c **** 	//display on
  67:Core/ssd1306/ssd1306.c ****     oled_writecmd(0xAF);
  68:Core/ssd1306/ssd1306.c **** }
  69:Core/ssd1306/ssd1306.c **** 
  70:Core/ssd1306/ssd1306.c **** void spi_sendbyte(uint8_t data)
  71:Core/ssd1306/ssd1306.c **** {
  30              		.loc 1 71 1 view -0
  31              		.cfi_startproc
  32              		@ args = 0, pretend = 0, frame = 8
  33              		@ frame_needed = 0, uses_anonymous_args = 0
  34              		.loc 1 71 1 is_stmt 0 view .LVU1
  35 0000 00B5     		push	{lr}
  36              	.LCFI0:
  37              		.cfi_def_cfa_offset 4
  38              		.cfi_offset 14, -4
  39 0002 83B0     		sub	sp, sp, #12
  40              	.LCFI1:
  41              		.cfi_def_cfa_offset 16
  42 0004 8DF80700 		strb	r0, [sp, #7]
  72:Core/ssd1306/ssd1306.c ****     HAL_SPI_Transmit(&spi_port, (uint8_t*)&data, 1, 10);
  43              		.loc 1 72 5 is_stmt 1 view .LVU2
ARM GAS  C:\Users\wucha\AppData\Local\Temp\ccDMtPZY.s 			page 3


  44 0008 0A23     		movs	r3, #10
  45 000a 0122     		movs	r2, #1
  46 000c 0DF10701 		add	r1, sp, #7
  47 0010 0248     		ldr	r0, .L3
  48              	.LVL1:
  49              		.loc 1 72 5 is_stmt 0 view .LVU3
  50 0012 FFF7FEFF 		bl	HAL_SPI_Transmit
  51              	.LVL2:
  73:Core/ssd1306/ssd1306.c **** }
  52              		.loc 1 73 1 view .LVU4
  53 0016 03B0     		add	sp, sp, #12
  54              	.LCFI2:
  55              		.cfi_def_cfa_offset 4
  56              		@ sp needed
  57 0018 5DF804FB 		ldr	pc, [sp], #4
  58              	.L4:
  59              		.align	2
  60              	.L3:
  61 001c 00000000 		.word	hspi1
  62              		.cfi_endproc
  63              	.LFE131:
  65              		.section	.text.oled_writecmd,"ax",%progbits
  66              		.align	1
  67              		.global	oled_writecmd
  68              		.syntax unified
  69              		.thumb
  70              		.thumb_func
  71              		.fpu fpv4-sp-d16
  73              	oled_writecmd:
  74              	.LVL3:
  75              	.LFB132:
  74:Core/ssd1306/ssd1306.c **** 
  75:Core/ssd1306/ssd1306.c **** void oled_writecmd(uint8_t data)
  76:Core/ssd1306/ssd1306.c **** {
  76              		.loc 1 76 1 is_stmt 1 view -0
  77              		.cfi_startproc
  78              		@ args = 0, pretend = 0, frame = 0
  79              		@ frame_needed = 0, uses_anonymous_args = 0
  80              		.loc 1 76 1 is_stmt 0 view .LVU6
  81 0000 38B5     		push	{r3, r4, r5, lr}
  82              	.LCFI3:
  83              		.cfi_def_cfa_offset 16
  84              		.cfi_offset 3, -16
  85              		.cfi_offset 4, -12
  86              		.cfi_offset 5, -8
  87              		.cfi_offset 14, -4
  88 0002 0546     		mov	r5, r0
  77:Core/ssd1306/ssd1306.c ****     HAL_GPIO_WritePin(OLED_DC, 0);
  89              		.loc 1 77 5 is_stmt 1 view .LVU7
  90 0004 0B4C     		ldr	r4, .L7
  91 0006 0022     		movs	r2, #0
  92 0008 1021     		movs	r1, #16
  93 000a 2046     		mov	r0, r4
  94              	.LVL4:
  95              		.loc 1 77 5 is_stmt 0 view .LVU8
  96 000c FFF7FEFF 		bl	HAL_GPIO_WritePin
  97              	.LVL5:
ARM GAS  C:\Users\wucha\AppData\Local\Temp\ccDMtPZY.s 			page 4


  78:Core/ssd1306/ssd1306.c ****     HAL_GPIO_WritePin(OLED_CS, 0);
  98              		.loc 1 78 5 is_stmt 1 view .LVU9
  99 0010 0022     		movs	r2, #0
 100 0012 2021     		movs	r1, #32
 101 0014 2046     		mov	r0, r4
 102 0016 FFF7FEFF 		bl	HAL_GPIO_WritePin
 103              	.LVL6:
  79:Core/ssd1306/ssd1306.c ****     spi_sendbyte(data);
 104              		.loc 1 79 5 view .LVU10
 105 001a 2846     		mov	r0, r5
 106 001c FFF7FEFF 		bl	spi_sendbyte
 107              	.LVL7:
  80:Core/ssd1306/ssd1306.c ****     HAL_GPIO_WritePin(OLED_CS, 1);
 108              		.loc 1 80 5 view .LVU11
 109 0020 0122     		movs	r2, #1
 110 0022 2021     		movs	r1, #32
 111 0024 2046     		mov	r0, r4
 112 0026 FFF7FEFF 		bl	HAL_GPIO_WritePin
 113              	.LVL8:
  81:Core/ssd1306/ssd1306.c ****     HAL_Delay(1);
 114              		.loc 1 81 5 view .LVU12
 115 002a 0120     		movs	r0, #1
 116 002c FFF7FEFF 		bl	HAL_Delay
 117              	.LVL9:
  82:Core/ssd1306/ssd1306.c **** }
 118              		.loc 1 82 1 is_stmt 0 view .LVU13
 119 0030 38BD     		pop	{r3, r4, r5, pc}
 120              	.L8:
 121 0032 00BF     		.align	2
 122              	.L7:
 123 0034 00080240 		.word	1073874944
 124              		.cfi_endproc
 125              	.LFE132:
 127              		.section	.text.oled_writedata,"ax",%progbits
 128              		.align	1
 129              		.global	oled_writedata
 130              		.syntax unified
 131              		.thumb
 132              		.thumb_func
 133              		.fpu fpv4-sp-d16
 135              	oled_writedata:
 136              	.LVL10:
 137              	.LFB133:
  83:Core/ssd1306/ssd1306.c **** 
  84:Core/ssd1306/ssd1306.c **** void oled_writedata(uint8_t data)
  85:Core/ssd1306/ssd1306.c **** {
 138              		.loc 1 85 1 is_stmt 1 view -0
 139              		.cfi_startproc
 140              		@ args = 0, pretend = 0, frame = 0
 141              		@ frame_needed = 0, uses_anonymous_args = 0
 142              		.loc 1 85 1 is_stmt 0 view .LVU15
 143 0000 38B5     		push	{r3, r4, r5, lr}
 144              	.LCFI4:
 145              		.cfi_def_cfa_offset 16
 146              		.cfi_offset 3, -16
 147              		.cfi_offset 4, -12
 148              		.cfi_offset 5, -8
ARM GAS  C:\Users\wucha\AppData\Local\Temp\ccDMtPZY.s 			page 5


 149              		.cfi_offset 14, -4
 150 0002 0546     		mov	r5, r0
  86:Core/ssd1306/ssd1306.c ****     HAL_GPIO_WritePin(OLED_DC, 1);
 151              		.loc 1 86 5 is_stmt 1 view .LVU16
 152 0004 094C     		ldr	r4, .L11
 153 0006 0122     		movs	r2, #1
 154 0008 1021     		movs	r1, #16
 155 000a 2046     		mov	r0, r4
 156              	.LVL11:
 157              		.loc 1 86 5 is_stmt 0 view .LVU17
 158 000c FFF7FEFF 		bl	HAL_GPIO_WritePin
 159              	.LVL12:
  87:Core/ssd1306/ssd1306.c ****     HAL_GPIO_WritePin(OLED_CS, 0);
 160              		.loc 1 87 5 is_stmt 1 view .LVU18
 161 0010 0022     		movs	r2, #0
 162 0012 2021     		movs	r1, #32
 163 0014 2046     		mov	r0, r4
 164 0016 FFF7FEFF 		bl	HAL_GPIO_WritePin
 165              	.LVL13:
  88:Core/ssd1306/ssd1306.c ****     spi_sendbyte(data);
 166              		.loc 1 88 5 view .LVU19
 167 001a 2846     		mov	r0, r5
 168 001c FFF7FEFF 		bl	spi_sendbyte
 169              	.LVL14:
  89:Core/ssd1306/ssd1306.c ****     HAL_GPIO_WritePin(OLED_CS, 1);
 170              		.loc 1 89 5 view .LVU20
 171 0020 0122     		movs	r2, #1
 172 0022 2021     		movs	r1, #32
 173 0024 2046     		mov	r0, r4
 174 0026 FFF7FEFF 		bl	HAL_GPIO_WritePin
 175              	.LVL15:
  90:Core/ssd1306/ssd1306.c **** }
 176              		.loc 1 90 1 is_stmt 0 view .LVU21
 177 002a 38BD     		pop	{r3, r4, r5, pc}
 178              	.L12:
 179              		.align	2
 180              	.L11:
 181 002c 00080240 		.word	1073874944
 182              		.cfi_endproc
 183              	.LFE133:
 185              		.section	.text.ssd1306_init,"ax",%progbits
 186              		.align	1
 187              		.global	ssd1306_init
 188              		.syntax unified
 189              		.thumb
 190              		.thumb_func
 191              		.fpu fpv4-sp-d16
 193              	ssd1306_init:
 194              	.LFB130:
   7:Core/ssd1306/ssd1306.c ****     HAL_GPIO_WritePin(OLED_DC, 1);
 195              		.loc 1 7 1 is_stmt 1 view -0
 196              		.cfi_startproc
 197              		@ args = 0, pretend = 0, frame = 0
 198              		@ frame_needed = 0, uses_anonymous_args = 0
 199 0000 10B5     		push	{r4, lr}
 200              	.LCFI5:
 201              		.cfi_def_cfa_offset 8
ARM GAS  C:\Users\wucha\AppData\Local\Temp\ccDMtPZY.s 			page 6


 202              		.cfi_offset 4, -8
 203              		.cfi_offset 14, -4
   8:Core/ssd1306/ssd1306.c ****     HAL_GPIO_WritePin(OLED_CS, 1);
 204              		.loc 1 8 5 view .LVU23
 205 0002 374C     		ldr	r4, .L15
 206 0004 0122     		movs	r2, #1
 207 0006 1021     		movs	r1, #16
 208 0008 2046     		mov	r0, r4
 209 000a FFF7FEFF 		bl	HAL_GPIO_WritePin
 210              	.LVL16:
   9:Core/ssd1306/ssd1306.c ****     HAL_GPIO_WritePin(OLED_RES, 1);
 211              		.loc 1 9 5 view .LVU24
 212 000e 0122     		movs	r2, #1
 213 0010 2021     		movs	r1, #32
 214 0012 2046     		mov	r0, r4
 215 0014 FFF7FEFF 		bl	HAL_GPIO_WritePin
 216              	.LVL17:
  10:Core/ssd1306/ssd1306.c ****     HAL_Delay(1);
 217              		.loc 1 10 5 view .LVU25
 218 0018 A4F50064 		sub	r4, r4, #2048
 219 001c 0122     		movs	r2, #1
 220 001e 4021     		movs	r1, #64
 221 0020 2046     		mov	r0, r4
 222 0022 FFF7FEFF 		bl	HAL_GPIO_WritePin
 223              	.LVL18:
  11:Core/ssd1306/ssd1306.c ****     HAL_GPIO_WritePin(OLED_RES, 0);
 224              		.loc 1 11 5 view .LVU26
 225 0026 0120     		movs	r0, #1
 226 0028 FFF7FEFF 		bl	HAL_Delay
 227              	.LVL19:
  12:Core/ssd1306/ssd1306.c ****     HAL_Delay(3);
 228              		.loc 1 12 5 view .LVU27
 229 002c 0022     		movs	r2, #0
 230 002e 4021     		movs	r1, #64
 231 0030 2046     		mov	r0, r4
 232 0032 FFF7FEFF 		bl	HAL_GPIO_WritePin
 233              	.LVL20:
  13:Core/ssd1306/ssd1306.c ****     HAL_GPIO_WritePin(OLED_RES, 1);
 234              		.loc 1 13 5 view .LVU28
 235 0036 0320     		movs	r0, #3
 236 0038 FFF7FEFF 		bl	HAL_Delay
 237              	.LVL21:
  14:Core/ssd1306/ssd1306.c **** 
 238              		.loc 1 14 5 view .LVU29
 239 003c 0122     		movs	r2, #1
 240 003e 4021     		movs	r1, #64
 241 0040 2046     		mov	r0, r4
 242 0042 FFF7FEFF 		bl	HAL_GPIO_WritePin
 243              	.LVL22:
  16:Core/ssd1306/ssd1306.c **** 
 244              		.loc 1 16 5 view .LVU30
 245 0046 6420     		movs	r0, #100
 246 0048 FFF7FEFF 		bl	HAL_Delay
 247              	.LVL23:
  18:Core/ssd1306/ssd1306.c **** 
 248              		.loc 1 18 5 view .LVU31
 249 004c AE20     		movs	r0, #174
ARM GAS  C:\Users\wucha\AppData\Local\Temp\ccDMtPZY.s 			page 7


 250 004e FFF7FEFF 		bl	oled_writecmd
 251              	.LVL24:
  21:Core/ssd1306/ssd1306.c ****     oled_writecmd(0x80);
 252              		.loc 1 21 5 view .LVU32
 253 0052 D520     		movs	r0, #213
 254 0054 FFF7FEFF 		bl	oled_writecmd
 255              	.LVL25:
  22:Core/ssd1306/ssd1306.c **** 
 256              		.loc 1 22 5 view .LVU33
 257 0058 8020     		movs	r0, #128
 258 005a FFF7FEFF 		bl	oled_writecmd
 259              	.LVL26:
  25:Core/ssd1306/ssd1306.c ****     oled_writecmd(0x3F);
 260              		.loc 1 25 5 view .LVU34
 261 005e A820     		movs	r0, #168
 262 0060 FFF7FEFF 		bl	oled_writecmd
 263              	.LVL27:
  26:Core/ssd1306/ssd1306.c **** 
 264              		.loc 1 26 5 view .LVU35
 265 0064 3F20     		movs	r0, #63
 266 0066 FFF7FEFF 		bl	oled_writecmd
 267              	.LVL28:
  29:Core/ssd1306/ssd1306.c ****     oled_writecmd(0x00);
 268              		.loc 1 29 5 view .LVU36
 269 006a D320     		movs	r0, #211
 270 006c FFF7FEFF 		bl	oled_writecmd
 271              	.LVL29:
  30:Core/ssd1306/ssd1306.c **** 
 272              		.loc 1 30 5 view .LVU37
 273 0070 0020     		movs	r0, #0
 274 0072 FFF7FEFF 		bl	oled_writecmd
 275              	.LVL30:
  33:Core/ssd1306/ssd1306.c ****     oled_writecmd(0x14);
 276              		.loc 1 33 5 view .LVU38
 277 0076 8D20     		movs	r0, #141
 278 0078 FFF7FEFF 		bl	oled_writecmd
 279              	.LVL31:
  34:Core/ssd1306/ssd1306.c ****     
 280              		.loc 1 34 5 view .LVU39
 281 007c 1420     		movs	r0, #20
 282 007e FFF7FEFF 		bl	oled_writecmd
 283              	.LVL32:
  37:Core/ssd1306/ssd1306.c **** 	oled_writecmd(0x00);
 284              		.loc 1 37 2 view .LVU40
 285 0082 2020     		movs	r0, #32
 286 0084 FFF7FEFF 		bl	oled_writecmd
 287              	.LVL33:
  38:Core/ssd1306/ssd1306.c **** 
 288              		.loc 1 38 2 view .LVU41
 289 0088 0020     		movs	r0, #0
 290 008a FFF7FEFF 		bl	oled_writecmd
 291              	.LVL34:
  41:Core/ssd1306/ssd1306.c **** 
 292              		.loc 1 41 5 view .LVU42
 293 008e A120     		movs	r0, #161
 294 0090 FFF7FEFF 		bl	oled_writecmd
 295              	.LVL35:
ARM GAS  C:\Users\wucha\AppData\Local\Temp\ccDMtPZY.s 			page 8


  44:Core/ssd1306/ssd1306.c **** 	
 296              		.loc 1 44 5 view .LVU43
 297 0094 C820     		movs	r0, #200
 298 0096 FFF7FEFF 		bl	oled_writecmd
 299              	.LVL36:
  47:Core/ssd1306/ssd1306.c ****     oled_writecmd(0x12);
 300              		.loc 1 47 5 view .LVU44
 301 009a DA20     		movs	r0, #218
 302 009c FFF7FEFF 		bl	oled_writecmd
 303              	.LVL37:
  48:Core/ssd1306/ssd1306.c **** 
 304              		.loc 1 48 5 view .LVU45
 305 00a0 1220     		movs	r0, #18
 306 00a2 FFF7FEFF 		bl	oled_writecmd
 307              	.LVL38:
  51:Core/ssd1306/ssd1306.c ****     oled_writecmd(0xCF);
 308              		.loc 1 51 5 view .LVU46
 309 00a6 8120     		movs	r0, #129
 310 00a8 FFF7FEFF 		bl	oled_writecmd
 311              	.LVL39:
  52:Core/ssd1306/ssd1306.c **** 
 312              		.loc 1 52 5 view .LVU47
 313 00ac CF20     		movs	r0, #207
 314 00ae FFF7FEFF 		bl	oled_writecmd
 315              	.LVL40:
  54:Core/ssd1306/ssd1306.c ****     oled_writedata(0xF1);
 316              		.loc 1 54 5 view .LVU48
 317 00b2 D920     		movs	r0, #217
 318 00b4 FFF7FEFF 		bl	oled_writedata
 319              	.LVL41:
  55:Core/ssd1306/ssd1306.c **** 
 320              		.loc 1 55 5 view .LVU49
 321 00b8 F120     		movs	r0, #241
 322 00ba FFF7FEFF 		bl	oled_writedata
 323              	.LVL42:
  57:Core/ssd1306/ssd1306.c ****     oled_writedata(0x40);
 324              		.loc 1 57 5 view .LVU50
 325 00be DB20     		movs	r0, #219
 326 00c0 FFF7FEFF 		bl	oled_writedata
 327              	.LVL43:
  58:Core/ssd1306/ssd1306.c **** 
 328              		.loc 1 58 5 view .LVU51
 329 00c4 4020     		movs	r0, #64
 330 00c6 FFF7FEFF 		bl	oled_writedata
 331              	.LVL44:
  61:Core/ssd1306/ssd1306.c **** 
 332              		.loc 1 61 5 view .LVU52
 333 00ca A420     		movs	r0, #164
 334 00cc FFF7FEFF 		bl	oled_writecmd
 335              	.LVL45:
  64:Core/ssd1306/ssd1306.c **** 
 336              		.loc 1 64 5 view .LVU53
 337 00d0 A620     		movs	r0, #166
 338 00d2 FFF7FEFF 		bl	oled_writecmd
 339              	.LVL46:
  67:Core/ssd1306/ssd1306.c **** }
 340              		.loc 1 67 5 view .LVU54
ARM GAS  C:\Users\wucha\AppData\Local\Temp\ccDMtPZY.s 			page 9


 341 00d6 AF20     		movs	r0, #175
 342 00d8 FFF7FEFF 		bl	oled_writecmd
 343              	.LVL47:
  68:Core/ssd1306/ssd1306.c **** 
 344              		.loc 1 68 1 is_stmt 0 view .LVU55
 345 00dc 10BD     		pop	{r4, pc}
 346              	.L16:
 347 00de 00BF     		.align	2
 348              	.L15:
 349 00e0 00080240 		.word	1073874944
 350              		.cfi_endproc
 351              	.LFE130:
 353              		.section	.text.fill_screen,"ax",%progbits
 354              		.align	1
 355              		.global	fill_screen
 356              		.syntax unified
 357              		.thumb
 358              		.thumb_func
 359              		.fpu fpv4-sp-d16
 361              	fill_screen:
 362              	.LVL48:
 363              	.LFB136:
  91:Core/ssd1306/ssd1306.c **** 
  92:Core/ssd1306/ssd1306.c **** void clean_screen(){
  93:Core/ssd1306/ssd1306.c ****     fill_screen(0x00);
  94:Core/ssd1306/ssd1306.c **** }
  95:Core/ssd1306/ssd1306.c **** 
  96:Core/ssd1306/ssd1306.c **** void fill_white(){
  97:Core/ssd1306/ssd1306.c ****     fill_screen(0xFF);
  98:Core/ssd1306/ssd1306.c **** }
  99:Core/ssd1306/ssd1306.c **** 
 100:Core/ssd1306/ssd1306.c **** void fill_screen(uint8_t data){
 364              		.loc 1 100 31 is_stmt 1 view -0
 365              		.cfi_startproc
 366              		@ args = 0, pretend = 0, frame = 0
 367              		@ frame_needed = 0, uses_anonymous_args = 0
 368              		.loc 1 100 31 is_stmt 0 view .LVU57
 369 0000 70B5     		push	{r4, r5, r6, lr}
 370              	.LCFI6:
 371              		.cfi_def_cfa_offset 16
 372              		.cfi_offset 4, -16
 373              		.cfi_offset 5, -12
 374              		.cfi_offset 6, -8
 375              		.cfi_offset 14, -4
 376 0002 0546     		mov	r5, r0
 101:Core/ssd1306/ssd1306.c ****     for(int i = 0; i <= 7; i++){
 377              		.loc 1 101 5 is_stmt 1 view .LVU58
 378              	.LBB2:
 379              		.loc 1 101 9 view .LVU59
 380              	.LVL49:
 381              		.loc 1 101 13 is_stmt 0 view .LVU60
 382 0004 0026     		movs	r6, #0
 383              		.loc 1 101 5 view .LVU61
 384 0006 06E0     		b	.L18
 385              	.LVL50:
 386              	.L19:
 387              	.LBB3:
ARM GAS  C:\Users\wucha\AppData\Local\Temp\ccDMtPZY.s 			page 10


 102:Core/ssd1306/ssd1306.c ****         for(int j = 0; j <= 127; j++){
 103:Core/ssd1306/ssd1306.c ****             oled_writedata(data);
 388              		.loc 1 103 13 is_stmt 1 discriminator 3 view .LVU62
 389 0008 2846     		mov	r0, r5
 390 000a FFF7FEFF 		bl	oled_writedata
 391              	.LVL51:
 102:Core/ssd1306/ssd1306.c ****         for(int j = 0; j <= 127; j++){
 392              		.loc 1 102 34 discriminator 3 view .LVU63
 102:Core/ssd1306/ssd1306.c ****         for(int j = 0; j <= 127; j++){
 393              		.loc 1 102 35 is_stmt 0 discriminator 3 view .LVU64
 394 000e 0134     		adds	r4, r4, #1
 395              	.LVL52:
 396              	.L20:
 102:Core/ssd1306/ssd1306.c ****         for(int j = 0; j <= 127; j++){
 397              		.loc 1 102 24 is_stmt 1 discriminator 1 view .LVU65
 102:Core/ssd1306/ssd1306.c ****         for(int j = 0; j <= 127; j++){
 398              		.loc 1 102 9 is_stmt 0 discriminator 1 view .LVU66
 399 0010 7F2C     		cmp	r4, #127
 400 0012 F9DD     		ble	.L19
 401              	.LBE3:
 101:Core/ssd1306/ssd1306.c ****     for(int i = 0; i <= 7; i++){
 402              		.loc 1 101 28 is_stmt 1 discriminator 2 view .LVU67
 101:Core/ssd1306/ssd1306.c ****     for(int i = 0; i <= 7; i++){
 403              		.loc 1 101 29 is_stmt 0 discriminator 2 view .LVU68
 404 0014 0136     		adds	r6, r6, #1
 405              	.LVL53:
 406              	.L18:
 101:Core/ssd1306/ssd1306.c ****     for(int i = 0; i <= 7; i++){
 407              		.loc 1 101 20 is_stmt 1 discriminator 1 view .LVU69
 101:Core/ssd1306/ssd1306.c ****     for(int i = 0; i <= 7; i++){
 408              		.loc 1 101 5 is_stmt 0 discriminator 1 view .LVU70
 409 0016 072E     		cmp	r6, #7
 410 0018 01DC     		bgt	.L23
 411              	.LBB4:
 102:Core/ssd1306/ssd1306.c ****         for(int j = 0; j <= 127; j++){
 412              		.loc 1 102 17 view .LVU71
 413 001a 0024     		movs	r4, #0
 414 001c F8E7     		b	.L20
 415              	.L23:
 416              	.LBE4:
 417              	.LBE2:
 104:Core/ssd1306/ssd1306.c ****         }
 105:Core/ssd1306/ssd1306.c ****     }
 106:Core/ssd1306/ssd1306.c **** }
 418              		.loc 1 106 1 view .LVU72
 419 001e 70BD     		pop	{r4, r5, r6, pc}
 420              		.loc 1 106 1 view .LVU73
 421              		.cfi_endproc
 422              	.LFE136:
 424              		.section	.text.clean_screen,"ax",%progbits
 425              		.align	1
 426              		.global	clean_screen
 427              		.syntax unified
 428              		.thumb
 429              		.thumb_func
 430              		.fpu fpv4-sp-d16
 432              	clean_screen:
ARM GAS  C:\Users\wucha\AppData\Local\Temp\ccDMtPZY.s 			page 11


 433              	.LFB134:
  92:Core/ssd1306/ssd1306.c ****     fill_screen(0x00);
 434              		.loc 1 92 20 is_stmt 1 view -0
 435              		.cfi_startproc
 436              		@ args = 0, pretend = 0, frame = 0
 437              		@ frame_needed = 0, uses_anonymous_args = 0
 438 0000 08B5     		push	{r3, lr}
 439              	.LCFI7:
 440              		.cfi_def_cfa_offset 8
 441              		.cfi_offset 3, -8
 442              		.cfi_offset 14, -4
  93:Core/ssd1306/ssd1306.c **** }
 443              		.loc 1 93 5 view .LVU75
 444 0002 0020     		movs	r0, #0
 445 0004 FFF7FEFF 		bl	fill_screen
 446              	.LVL54:
  94:Core/ssd1306/ssd1306.c **** 
 447              		.loc 1 94 1 is_stmt 0 view .LVU76
 448 0008 08BD     		pop	{r3, pc}
 449              		.cfi_endproc
 450              	.LFE134:
 452              		.section	.text.fill_white,"ax",%progbits
 453              		.align	1
 454              		.global	fill_white
 455              		.syntax unified
 456              		.thumb
 457              		.thumb_func
 458              		.fpu fpv4-sp-d16
 460              	fill_white:
 461              	.LFB135:
  96:Core/ssd1306/ssd1306.c ****     fill_screen(0xFF);
 462              		.loc 1 96 18 is_stmt 1 view -0
 463              		.cfi_startproc
 464              		@ args = 0, pretend = 0, frame = 0
 465              		@ frame_needed = 0, uses_anonymous_args = 0
 466 0000 08B5     		push	{r3, lr}
 467              	.LCFI8:
 468              		.cfi_def_cfa_offset 8
 469              		.cfi_offset 3, -8
 470              		.cfi_offset 14, -4
  97:Core/ssd1306/ssd1306.c **** }
 471              		.loc 1 97 5 view .LVU78
 472 0002 FF20     		movs	r0, #255
 473 0004 FFF7FEFF 		bl	fill_screen
 474              	.LVL55:
  98:Core/ssd1306/ssd1306.c **** 
 475              		.loc 1 98 1 is_stmt 0 view .LVU79
 476 0008 08BD     		pop	{r3, pc}
 477              		.cfi_endproc
 478              	.LFE135:
 480              		.section	.text.oled_print,"ax",%progbits
 481              		.align	1
 482              		.global	oled_print
 483              		.syntax unified
 484              		.thumb
 485              		.thumb_func
 486              		.fpu fpv4-sp-d16
ARM GAS  C:\Users\wucha\AppData\Local\Temp\ccDMtPZY.s 			page 12


 488              	oled_print:
 489              	.LVL56:
 490              	.LFB137:
 107:Core/ssd1306/ssd1306.c **** 
 108:Core/ssd1306/ssd1306.c **** void oled_print(uint8_t x, uint8_t y){
 491              		.loc 1 108 38 is_stmt 1 view -0
 492              		.cfi_startproc
 493              		@ args = 0, pretend = 0, frame = 0
 494              		@ frame_needed = 0, uses_anonymous_args = 0
 495              		.loc 1 108 38 is_stmt 0 view .LVU81
 496 0000 2DE9F041 		push	{r4, r5, r6, r7, r8, lr}
 497              	.LCFI9:
 498              		.cfi_def_cfa_offset 24
 499              		.cfi_offset 4, -24
 500              		.cfi_offset 5, -20
 501              		.cfi_offset 6, -16
 502              		.cfi_offset 7, -12
 503              		.cfi_offset 8, -8
 504              		.cfi_offset 14, -4
 505 0004 0F46     		mov	r7, r1
 109:Core/ssd1306/ssd1306.c ****     uint8_t page = x / 8;
 506              		.loc 1 109 5 is_stmt 1 view .LVU82
 507              		.loc 1 109 13 is_stmt 0 view .LVU83
 508 0006 4FEAD008 		lsr	r8, r0, #3
 509              	.LVL57:
 110:Core/ssd1306/ssd1306.c ****     uint8_t curr_x = page * 8;
 510              		.loc 1 110 5 is_stmt 1 view .LVU84
 111:Core/ssd1306/ssd1306.c ****     uint8_t shift = x - curr_x;
 511              		.loc 1 111 5 view .LVU85
 512 000a 00F00706 		and	r6, r0, #7
 513              	.LVL58:
 112:Core/ssd1306/ssd1306.c **** 	
 113:Core/ssd1306/ssd1306.c **** 	oled_writecmd(0x20);
 514              		.loc 1 113 2 view .LVU86
 515 000e 2020     		movs	r0, #32
 516              	.LVL59:
 517              		.loc 1 113 2 is_stmt 0 view .LVU87
 518 0010 FFF7FEFF 		bl	oled_writecmd
 519              	.LVL60:
 114:Core/ssd1306/ssd1306.c **** 	oled_writecmd(0x00);
 520              		.loc 1 114 2 is_stmt 1 view .LVU88
 521 0014 0020     		movs	r0, #0
 522 0016 FFF7FEFF 		bl	oled_writecmd
 523              	.LVL61:
 115:Core/ssd1306/ssd1306.c **** 
 116:Core/ssd1306/ssd1306.c ****     oled_writecmd(0x22);
 524              		.loc 1 116 5 view .LVU89
 525 001a 2220     		movs	r0, #34
 526 001c FFF7FEFF 		bl	oled_writecmd
 527              	.LVL62:
 117:Core/ssd1306/ssd1306.c ****     oled_writecmd(page);
 528              		.loc 1 117 5 view .LVU90
 529 0020 4046     		mov	r0, r8
 530 0022 FFF7FEFF 		bl	oled_writecmd
 531              	.LVL63:
 118:Core/ssd1306/ssd1306.c ****     oled_writecmd(7);
 532              		.loc 1 118 5 view .LVU91
ARM GAS  C:\Users\wucha\AppData\Local\Temp\ccDMtPZY.s 			page 13


 533 0026 0720     		movs	r0, #7
 534 0028 FFF7FEFF 		bl	oled_writecmd
 535              	.LVL64:
 119:Core/ssd1306/ssd1306.c **** 
 120:Core/ssd1306/ssd1306.c ****     oled_writecmd(0x21);
 536              		.loc 1 120 5 view .LVU92
 537 002c 2120     		movs	r0, #33
 538 002e FFF7FEFF 		bl	oled_writecmd
 539              	.LVL65:
 121:Core/ssd1306/ssd1306.c ****     oled_writecmd(y);
 540              		.loc 1 121 5 view .LVU93
 541 0032 3846     		mov	r0, r7
 542 0034 FFF7FEFF 		bl	oled_writecmd
 543              	.LVL66:
 122:Core/ssd1306/ssd1306.c ****     oled_writecmd(127);
 544              		.loc 1 122 5 view .LVU94
 545 0038 7F20     		movs	r0, #127
 546 003a FFF7FEFF 		bl	oled_writecmd
 547              	.LVL67:
 123:Core/ssd1306/ssd1306.c **** 
 124:Core/ssd1306/ssd1306.c ****     // uint8_t t[] = {0x00, 0x21, 0x41, 0x45, 0x4B, 0x31};
 125:Core/ssd1306/ssd1306.c ****     //write data
 126:Core/ssd1306/ssd1306.c ****     for(uint8_t i = 0; i < font_width; i++){
 548              		.loc 1 126 5 view .LVU95
 549              	.LBB5:
 550              		.loc 1 126 9 view .LVU96
 551              		.loc 1 126 17 is_stmt 0 view .LVU97
 552 003e 0024     		movs	r4, #0
 553              		.loc 1 126 5 view .LVU98
 554 0040 09E0     		b	.L29
 555              	.LVL68:
 556              	.L30:
 127:Core/ssd1306/ssd1306.c ****         // oled_writedata(t[i] << shift);
 128:Core/ssd1306/ssd1306.c ****         oled_writedata(font_array[10+i] << shift);
 557              		.loc 1 128 9 is_stmt 1 discriminator 3 view .LVU99
 558              		.loc 1 128 37 is_stmt 0 discriminator 3 view .LVU100
 559 0042 04F10A03 		add	r3, r4, #10
 560              		.loc 1 128 34 discriminator 3 view .LVU101
 561 0046 194A     		ldr	r2, .L36
 562 0048 D05C     		ldrb	r0, [r2, r3]	@ zero_extendqisi2
 563              		.loc 1 128 41 discriminator 3 view .LVU102
 564 004a B040     		lsls	r0, r0, r6
 565              		.loc 1 128 9 discriminator 3 view .LVU103
 566 004c C0B2     		uxtb	r0, r0
 567 004e FFF7FEFF 		bl	oled_writedata
 568              	.LVL69:
 126:Core/ssd1306/ssd1306.c ****         // oled_writedata(t[i] << shift);
 569              		.loc 1 126 40 is_stmt 1 discriminator 3 view .LVU104
 126:Core/ssd1306/ssd1306.c ****         // oled_writedata(t[i] << shift);
 570              		.loc 1 126 41 is_stmt 0 discriminator 3 view .LVU105
 571 0052 0134     		adds	r4, r4, #1
 572              	.LVL70:
 126:Core/ssd1306/ssd1306.c ****         // oled_writedata(t[i] << shift);
 573              		.loc 1 126 41 discriminator 3 view .LVU106
 574 0054 E4B2     		uxtb	r4, r4
 575              	.LVL71:
 576              	.L29:
ARM GAS  C:\Users\wucha\AppData\Local\Temp\ccDMtPZY.s 			page 14


 126:Core/ssd1306/ssd1306.c ****         // oled_writedata(t[i] << shift);
 577              		.loc 1 126 24 is_stmt 1 discriminator 1 view .LVU107
 126:Core/ssd1306/ssd1306.c ****         // oled_writedata(t[i] << shift);
 578              		.loc 1 126 28 is_stmt 0 discriminator 1 view .LVU108
 579 0056 154B     		ldr	r3, .L36
 580 0058 5D78     		ldrb	r5, [r3, #1]	@ zero_extendqisi2
 126:Core/ssd1306/ssd1306.c ****         // oled_writedata(t[i] << shift);
 581              		.loc 1 126 5 discriminator 1 view .LVU109
 582 005a A542     		cmp	r5, r4
 583 005c F1D8     		bhi	.L30
 584              	.LBE5:
 129:Core/ssd1306/ssd1306.c ****     }
 130:Core/ssd1306/ssd1306.c **** 
 131:Core/ssd1306/ssd1306.c ****     if(shift != 0){
 585              		.loc 1 131 5 is_stmt 1 view .LVU110
 586              		.loc 1 131 7 is_stmt 0 view .LVU111
 587 005e 0EB9     		cbnz	r6, .L35
 588              	.LVL72:
 589              	.L28:
 132:Core/ssd1306/ssd1306.c ****         oled_writecmd(0x22);
 133:Core/ssd1306/ssd1306.c ****         oled_writecmd(page + 1);
 134:Core/ssd1306/ssd1306.c ****         oled_writecmd(7);
 135:Core/ssd1306/ssd1306.c **** 
 136:Core/ssd1306/ssd1306.c ****         oled_writecmd(0x21);
 137:Core/ssd1306/ssd1306.c ****         oled_writecmd(y);
 138:Core/ssd1306/ssd1306.c ****         oled_writecmd(127);
 139:Core/ssd1306/ssd1306.c ****         
 140:Core/ssd1306/ssd1306.c ****         for(uint8_t i = 0; i < font_width; i++){
 141:Core/ssd1306/ssd1306.c ****             oled_writedata(font_array[10+i] >> (8 - shift));
 142:Core/ssd1306/ssd1306.c ****         }
 143:Core/ssd1306/ssd1306.c ****     }
 144:Core/ssd1306/ssd1306.c **** }
 590              		.loc 1 144 1 view .LVU112
 591 0060 BDE8F081 		pop	{r4, r5, r6, r7, r8, pc}
 592              	.LVL73:
 593              	.L35:
 132:Core/ssd1306/ssd1306.c ****         oled_writecmd(0x22);
 594              		.loc 1 132 9 is_stmt 1 view .LVU113
 595 0064 2220     		movs	r0, #34
 596 0066 FFF7FEFF 		bl	oled_writecmd
 597              	.LVL74:
 133:Core/ssd1306/ssd1306.c ****         oled_writecmd(7);
 598              		.loc 1 133 9 view .LVU114
 599 006a 08F10100 		add	r0, r8, #1
 600 006e FFF7FEFF 		bl	oled_writecmd
 601              	.LVL75:
 134:Core/ssd1306/ssd1306.c **** 
 602              		.loc 1 134 9 view .LVU115
 603 0072 0720     		movs	r0, #7
 604 0074 FFF7FEFF 		bl	oled_writecmd
 605              	.LVL76:
 136:Core/ssd1306/ssd1306.c ****         oled_writecmd(y);
 606              		.loc 1 136 9 view .LVU116
 607 0078 2120     		movs	r0, #33
 608 007a FFF7FEFF 		bl	oled_writecmd
 609              	.LVL77:
 137:Core/ssd1306/ssd1306.c ****         oled_writecmd(127);
ARM GAS  C:\Users\wucha\AppData\Local\Temp\ccDMtPZY.s 			page 15


 610              		.loc 1 137 9 view .LVU117
 611 007e 3846     		mov	r0, r7
 612 0080 FFF7FEFF 		bl	oled_writecmd
 613              	.LVL78:
 138:Core/ssd1306/ssd1306.c ****         
 614              		.loc 1 138 9 view .LVU118
 615 0084 7F20     		movs	r0, #127
 616 0086 FFF7FEFF 		bl	oled_writecmd
 617              	.LVL79:
 140:Core/ssd1306/ssd1306.c ****             oled_writedata(font_array[10+i] >> (8 - shift));
 618              		.loc 1 140 9 view .LVU119
 619              	.LBB6:
 140:Core/ssd1306/ssd1306.c ****             oled_writedata(font_array[10+i] >> (8 - shift));
 620              		.loc 1 140 13 view .LVU120
 140:Core/ssd1306/ssd1306.c ****             oled_writedata(font_array[10+i] >> (8 - shift));
 621              		.loc 1 140 21 is_stmt 0 view .LVU121
 622 008a 0024     		movs	r4, #0
 623              	.LVL80:
 140:Core/ssd1306/ssd1306.c ****             oled_writedata(font_array[10+i] >> (8 - shift));
 624              		.loc 1 140 9 view .LVU122
 625 008c 0BE0     		b	.L32
 626              	.LVL81:
 627              	.L33:
 141:Core/ssd1306/ssd1306.c ****         }
 628              		.loc 1 141 13 is_stmt 1 discriminator 3 view .LVU123
 141:Core/ssd1306/ssd1306.c ****         }
 629              		.loc 1 141 41 is_stmt 0 discriminator 3 view .LVU124
 630 008e 04F10A03 		add	r3, r4, #10
 141:Core/ssd1306/ssd1306.c ****         }
 631              		.loc 1 141 38 discriminator 3 view .LVU125
 632 0092 064A     		ldr	r2, .L36
 633 0094 D05C     		ldrb	r0, [r2, r3]	@ zero_extendqisi2
 141:Core/ssd1306/ssd1306.c ****         }
 634              		.loc 1 141 51 discriminator 3 view .LVU126
 635 0096 C6F10803 		rsb	r3, r6, #8
 141:Core/ssd1306/ssd1306.c ****         }
 636              		.loc 1 141 45 discriminator 3 view .LVU127
 637 009a 1841     		asrs	r0, r0, r3
 141:Core/ssd1306/ssd1306.c ****         }
 638              		.loc 1 141 13 discriminator 3 view .LVU128
 639 009c C0B2     		uxtb	r0, r0
 640 009e FFF7FEFF 		bl	oled_writedata
 641              	.LVL82:
 140:Core/ssd1306/ssd1306.c ****             oled_writedata(font_array[10+i] >> (8 - shift));
 642              		.loc 1 140 44 is_stmt 1 discriminator 3 view .LVU129
 140:Core/ssd1306/ssd1306.c ****             oled_writedata(font_array[10+i] >> (8 - shift));
 643              		.loc 1 140 45 is_stmt 0 discriminator 3 view .LVU130
 644 00a2 0134     		adds	r4, r4, #1
 645              	.LVL83:
 140:Core/ssd1306/ssd1306.c ****             oled_writedata(font_array[10+i] >> (8 - shift));
 646              		.loc 1 140 45 discriminator 3 view .LVU131
 647 00a4 E4B2     		uxtb	r4, r4
 648              	.LVL84:
 649              	.L32:
 140:Core/ssd1306/ssd1306.c ****             oled_writedata(font_array[10+i] >> (8 - shift));
 650              		.loc 1 140 28 is_stmt 1 discriminator 1 view .LVU132
 140:Core/ssd1306/ssd1306.c ****             oled_writedata(font_array[10+i] >> (8 - shift));
ARM GAS  C:\Users\wucha\AppData\Local\Temp\ccDMtPZY.s 			page 16


 651              		.loc 1 140 9 is_stmt 0 discriminator 1 view .LVU133
 652 00a6 A542     		cmp	r5, r4
 653 00a8 F1D8     		bhi	.L33
 654 00aa D9E7     		b	.L28
 655              	.L37:
 656              		.align	2
 657              	.L36:
 658 00ac 00000000 		.word	ssd1306xled_font6x8
 659              	.LBE6:
 660              		.cfi_endproc
 661              	.LFE137:
 663              		.section	.text.oled_print_ch,"ax",%progbits
 664              		.align	1
 665              		.global	oled_print_ch
 666              		.syntax unified
 667              		.thumb
 668              		.thumb_func
 669              		.fpu fpv4-sp-d16
 671              	oled_print_ch:
 672              	.LVL85:
 673              	.LFB138:
 145:Core/ssd1306/ssd1306.c **** 
 146:Core/ssd1306/ssd1306.c **** void oled_print_ch(uint8_t x, uint8_t y, char ch){
 674              		.loc 1 146 50 is_stmt 1 view -0
 675              		.cfi_startproc
 676              		@ args = 0, pretend = 0, frame = 0
 677              		@ frame_needed = 0, uses_anonymous_args = 0
 678              		.loc 1 146 50 is_stmt 0 view .LVU135
 679 0000 2DE9F843 		push	{r3, r4, r5, r6, r7, r8, r9, lr}
 680              	.LCFI10:
 681              		.cfi_def_cfa_offset 32
 682              		.cfi_offset 3, -32
 683              		.cfi_offset 4, -28
 684              		.cfi_offset 5, -24
 685              		.cfi_offset 6, -20
 686              		.cfi_offset 7, -16
 687              		.cfi_offset 8, -12
 688              		.cfi_offset 9, -8
 689              		.cfi_offset 14, -4
 690 0004 8846     		mov	r8, r1
 147:Core/ssd1306/ssd1306.c ****     uint16_t index = ((ch - 32) * font_width)+ 4;
 691              		.loc 1 147 5 is_stmt 1 view .LVU136
 692              		.loc 1 147 27 is_stmt 0 view .LVU137
 693 0006 A2F12005 		sub	r5, r2, #32
 694              		.loc 1 147 35 view .LVU138
 695 000a 2B4B     		ldr	r3, .L46
 696 000c 5F78     		ldrb	r7, [r3, #1]	@ zero_extendqisi2
 697              		.loc 1 147 46 view .LVU139
 698 000e 15FB07F5 		smulbb	r5, r5, r7
 699 0012 ADB2     		uxth	r5, r5
 700              		.loc 1 147 14 view .LVU140
 701 0014 0435     		adds	r5, r5, #4
 702 0016 ADB2     		uxth	r5, r5
 703              	.LVL86:
 148:Core/ssd1306/ssd1306.c **** 
 149:Core/ssd1306/ssd1306.c ****     uint8_t page = x / 8;
 704              		.loc 1 149 5 is_stmt 1 view .LVU141
ARM GAS  C:\Users\wucha\AppData\Local\Temp\ccDMtPZY.s 			page 17


 705              		.loc 1 149 13 is_stmt 0 view .LVU142
 706 0018 4FEAD009 		lsr	r9, r0, #3
 707              	.LVL87:
 150:Core/ssd1306/ssd1306.c ****     uint8_t curr_x = page * 8;
 708              		.loc 1 150 5 is_stmt 1 view .LVU143
 151:Core/ssd1306/ssd1306.c ****     uint8_t shift = x - curr_x;
 709              		.loc 1 151 5 view .LVU144
 710 001c 00F00706 		and	r6, r0, #7
 711              	.LVL88:
 152:Core/ssd1306/ssd1306.c **** 	
 153:Core/ssd1306/ssd1306.c **** 	oled_writecmd(0x20);
 712              		.loc 1 153 2 view .LVU145
 713 0020 2020     		movs	r0, #32
 714              	.LVL89:
 715              		.loc 1 153 2 is_stmt 0 view .LVU146
 716 0022 FFF7FEFF 		bl	oled_writecmd
 717              	.LVL90:
 154:Core/ssd1306/ssd1306.c **** 	oled_writecmd(0x00);
 718              		.loc 1 154 2 is_stmt 1 view .LVU147
 719 0026 0020     		movs	r0, #0
 720 0028 FFF7FEFF 		bl	oled_writecmd
 721              	.LVL91:
 155:Core/ssd1306/ssd1306.c **** 
 156:Core/ssd1306/ssd1306.c ****     oled_writecmd(0x22);
 722              		.loc 1 156 5 view .LVU148
 723 002c 2220     		movs	r0, #34
 724 002e FFF7FEFF 		bl	oled_writecmd
 725              	.LVL92:
 157:Core/ssd1306/ssd1306.c ****     oled_writecmd(page);
 726              		.loc 1 157 5 view .LVU149
 727 0032 4846     		mov	r0, r9
 728 0034 FFF7FEFF 		bl	oled_writecmd
 729              	.LVL93:
 158:Core/ssd1306/ssd1306.c ****     oled_writecmd(7);
 730              		.loc 1 158 5 view .LVU150
 731 0038 0720     		movs	r0, #7
 732 003a FFF7FEFF 		bl	oled_writecmd
 733              	.LVL94:
 159:Core/ssd1306/ssd1306.c **** 
 160:Core/ssd1306/ssd1306.c ****     oled_writecmd(0x21);
 734              		.loc 1 160 5 view .LVU151
 735 003e 2120     		movs	r0, #33
 736 0040 FFF7FEFF 		bl	oled_writecmd
 737              	.LVL95:
 161:Core/ssd1306/ssd1306.c ****     oled_writecmd(y);
 738              		.loc 1 161 5 view .LVU152
 739 0044 4046     		mov	r0, r8
 740 0046 FFF7FEFF 		bl	oled_writecmd
 741              	.LVL96:
 162:Core/ssd1306/ssd1306.c ****     oled_writecmd(127);
 742              		.loc 1 162 5 view .LVU153
 743 004a 7F20     		movs	r0, #127
 744 004c FFF7FEFF 		bl	oled_writecmd
 745              	.LVL97:
 163:Core/ssd1306/ssd1306.c **** 
 164:Core/ssd1306/ssd1306.c ****     //write data
 165:Core/ssd1306/ssd1306.c ****     for(uint8_t i = 0; i <= font_width; i++){
ARM GAS  C:\Users\wucha\AppData\Local\Temp\ccDMtPZY.s 			page 18


 746              		.loc 1 165 5 view .LVU154
 747              	.LBB7:
 748              		.loc 1 165 9 view .LVU155
 749              		.loc 1 165 17 is_stmt 0 view .LVU156
 750 0050 0024     		movs	r4, #0
 751              		.loc 1 165 5 view .LVU157
 752 0052 08E0     		b	.L39
 753              	.LVL98:
 754              	.L40:
 166:Core/ssd1306/ssd1306.c ****         oled_writedata(font_array[index+i] << shift);
 755              		.loc 1 166 9 is_stmt 1 discriminator 3 view .LVU158
 756              		.loc 1 166 40 is_stmt 0 discriminator 3 view .LVU159
 757 0054 2B19     		adds	r3, r5, r4
 758              		.loc 1 166 34 discriminator 3 view .LVU160
 759 0056 184A     		ldr	r2, .L46
 760 0058 D05C     		ldrb	r0, [r2, r3]	@ zero_extendqisi2
 761              		.loc 1 166 44 discriminator 3 view .LVU161
 762 005a B040     		lsls	r0, r0, r6
 763              		.loc 1 166 9 discriminator 3 view .LVU162
 764 005c C0B2     		uxtb	r0, r0
 765 005e FFF7FEFF 		bl	oled_writedata
 766              	.LVL99:
 165:Core/ssd1306/ssd1306.c ****         oled_writedata(font_array[index+i] << shift);
 767              		.loc 1 165 41 is_stmt 1 discriminator 3 view .LVU163
 165:Core/ssd1306/ssd1306.c ****         oled_writedata(font_array[index+i] << shift);
 768              		.loc 1 165 42 is_stmt 0 discriminator 3 view .LVU164
 769 0062 0134     		adds	r4, r4, #1
 770              	.LVL100:
 165:Core/ssd1306/ssd1306.c ****         oled_writedata(font_array[index+i] << shift);
 771              		.loc 1 165 42 discriminator 3 view .LVU165
 772 0064 E4B2     		uxtb	r4, r4
 773              	.LVL101:
 774              	.L39:
 165:Core/ssd1306/ssd1306.c ****         oled_writedata(font_array[index+i] << shift);
 775              		.loc 1 165 24 is_stmt 1 discriminator 1 view .LVU166
 165:Core/ssd1306/ssd1306.c ****         oled_writedata(font_array[index+i] << shift);
 776              		.loc 1 165 5 is_stmt 0 discriminator 1 view .LVU167
 777 0066 A742     		cmp	r7, r4
 778 0068 F4D2     		bcs	.L40
 779              	.LBE7:
 167:Core/ssd1306/ssd1306.c ****     }
 168:Core/ssd1306/ssd1306.c **** 
 169:Core/ssd1306/ssd1306.c ****     if(shift != 0){
 780              		.loc 1 169 5 is_stmt 1 view .LVU168
 781              		.loc 1 169 7 is_stmt 0 view .LVU169
 782 006a 0EB9     		cbnz	r6, .L45
 783              	.LVL102:
 784              	.L38:
 170:Core/ssd1306/ssd1306.c ****         oled_writecmd(0x22);
 171:Core/ssd1306/ssd1306.c ****         oled_writecmd(page + 1);
 172:Core/ssd1306/ssd1306.c ****         oled_writecmd(7);
 173:Core/ssd1306/ssd1306.c **** 
 174:Core/ssd1306/ssd1306.c ****         oled_writecmd(0x21);
 175:Core/ssd1306/ssd1306.c ****         oled_writecmd(y);
 176:Core/ssd1306/ssd1306.c ****         oled_writecmd(127);
 177:Core/ssd1306/ssd1306.c ****         
 178:Core/ssd1306/ssd1306.c ****         for(uint8_t i = 0; i <= font_width; i++){
ARM GAS  C:\Users\wucha\AppData\Local\Temp\ccDMtPZY.s 			page 19


 179:Core/ssd1306/ssd1306.c ****             oled_writedata(font_array[index+i] >> (8 - shift));
 180:Core/ssd1306/ssd1306.c ****         }
 181:Core/ssd1306/ssd1306.c ****     }
 182:Core/ssd1306/ssd1306.c **** }
 785              		.loc 1 182 1 view .LVU170
 786 006c BDE8F883 		pop	{r3, r4, r5, r6, r7, r8, r9, pc}
 787              	.LVL103:
 788              	.L45:
 170:Core/ssd1306/ssd1306.c ****         oled_writecmd(0x22);
 789              		.loc 1 170 9 is_stmt 1 view .LVU171
 790 0070 2220     		movs	r0, #34
 791 0072 FFF7FEFF 		bl	oled_writecmd
 792              	.LVL104:
 171:Core/ssd1306/ssd1306.c ****         oled_writecmd(7);
 793              		.loc 1 171 9 view .LVU172
 794 0076 09F10100 		add	r0, r9, #1
 795 007a FFF7FEFF 		bl	oled_writecmd
 796              	.LVL105:
 172:Core/ssd1306/ssd1306.c **** 
 797              		.loc 1 172 9 view .LVU173
 798 007e 0720     		movs	r0, #7
 799 0080 FFF7FEFF 		bl	oled_writecmd
 800              	.LVL106:
 174:Core/ssd1306/ssd1306.c ****         oled_writecmd(y);
 801              		.loc 1 174 9 view .LVU174
 802 0084 2120     		movs	r0, #33
 803 0086 FFF7FEFF 		bl	oled_writecmd
 804              	.LVL107:
 175:Core/ssd1306/ssd1306.c ****         oled_writecmd(127);
 805              		.loc 1 175 9 view .LVU175
 806 008a 4046     		mov	r0, r8
 807 008c FFF7FEFF 		bl	oled_writecmd
 808              	.LVL108:
 176:Core/ssd1306/ssd1306.c ****         
 809              		.loc 1 176 9 view .LVU176
 810 0090 7F20     		movs	r0, #127
 811 0092 FFF7FEFF 		bl	oled_writecmd
 812              	.LVL109:
 178:Core/ssd1306/ssd1306.c ****             oled_writedata(font_array[index+i] >> (8 - shift));
 813              		.loc 1 178 9 view .LVU177
 814              	.LBB8:
 178:Core/ssd1306/ssd1306.c ****             oled_writedata(font_array[index+i] >> (8 - shift));
 815              		.loc 1 178 13 view .LVU178
 178:Core/ssd1306/ssd1306.c ****             oled_writedata(font_array[index+i] >> (8 - shift));
 816              		.loc 1 178 21 is_stmt 0 view .LVU179
 817 0096 0024     		movs	r4, #0
 818              	.LVL110:
 178:Core/ssd1306/ssd1306.c ****             oled_writedata(font_array[index+i] >> (8 - shift));
 819              		.loc 1 178 9 view .LVU180
 820 0098 0AE0     		b	.L42
 821              	.LVL111:
 822              	.L43:
 179:Core/ssd1306/ssd1306.c ****         }
 823              		.loc 1 179 13 is_stmt 1 discriminator 3 view .LVU181
 179:Core/ssd1306/ssd1306.c ****         }
 824              		.loc 1 179 44 is_stmt 0 discriminator 3 view .LVU182
 825 009a 2B19     		adds	r3, r5, r4
ARM GAS  C:\Users\wucha\AppData\Local\Temp\ccDMtPZY.s 			page 20


 179:Core/ssd1306/ssd1306.c ****         }
 826              		.loc 1 179 38 discriminator 3 view .LVU183
 827 009c 064A     		ldr	r2, .L46
 828 009e D05C     		ldrb	r0, [r2, r3]	@ zero_extendqisi2
 179:Core/ssd1306/ssd1306.c ****         }
 829              		.loc 1 179 54 discriminator 3 view .LVU184
 830 00a0 C6F10803 		rsb	r3, r6, #8
 179:Core/ssd1306/ssd1306.c ****         }
 831              		.loc 1 179 48 discriminator 3 view .LVU185
 832 00a4 1841     		asrs	r0, r0, r3
 179:Core/ssd1306/ssd1306.c ****         }
 833              		.loc 1 179 13 discriminator 3 view .LVU186
 834 00a6 C0B2     		uxtb	r0, r0
 835 00a8 FFF7FEFF 		bl	oled_writedata
 836              	.LVL112:
 178:Core/ssd1306/ssd1306.c ****             oled_writedata(font_array[index+i] >> (8 - shift));
 837              		.loc 1 178 45 is_stmt 1 discriminator 3 view .LVU187
 178:Core/ssd1306/ssd1306.c ****             oled_writedata(font_array[index+i] >> (8 - shift));
 838              		.loc 1 178 46 is_stmt 0 discriminator 3 view .LVU188
 839 00ac 0134     		adds	r4, r4, #1
 840              	.LVL113:
 178:Core/ssd1306/ssd1306.c ****             oled_writedata(font_array[index+i] >> (8 - shift));
 841              		.loc 1 178 46 discriminator 3 view .LVU189
 842 00ae E4B2     		uxtb	r4, r4
 843              	.LVL114:
 844              	.L42:
 178:Core/ssd1306/ssd1306.c ****             oled_writedata(font_array[index+i] >> (8 - shift));
 845              		.loc 1 178 28 is_stmt 1 discriminator 1 view .LVU190
 178:Core/ssd1306/ssd1306.c ****             oled_writedata(font_array[index+i] >> (8 - shift));
 846              		.loc 1 178 9 is_stmt 0 discriminator 1 view .LVU191
 847 00b0 A742     		cmp	r7, r4
 848 00b2 F2D2     		bcs	.L43
 849 00b4 DAE7     		b	.L38
 850              	.L47:
 851 00b6 00BF     		.align	2
 852              	.L46:
 853 00b8 00000000 		.word	ssd1306xled_font6x8
 854              	.LBE8:
 855              		.cfi_endproc
 856              	.LFE138:
 858              		.section	.text.oled_print_str,"ax",%progbits
 859              		.align	1
 860              		.global	oled_print_str
 861              		.syntax unified
 862              		.thumb
 863              		.thumb_func
 864              		.fpu fpv4-sp-d16
 866              	oled_print_str:
 867              	.LVL115:
 868              	.LFB139:
 183:Core/ssd1306/ssd1306.c **** 
 184:Core/ssd1306/ssd1306.c **** void oled_print_str(uint8_t x, uint8_t y, char* text){
 869              		.loc 1 184 54 is_stmt 1 view -0
 870              		.cfi_startproc
 871              		@ args = 0, pretend = 0, frame = 0
 872              		@ frame_needed = 0, uses_anonymous_args = 0
 873              		.loc 1 184 54 is_stmt 0 view .LVU193
ARM GAS  C:\Users\wucha\AppData\Local\Temp\ccDMtPZY.s 			page 21


 874 0000 2DE9F041 		push	{r4, r5, r6, r7, r8, lr}
 875              	.LCFI11:
 876              		.cfi_def_cfa_offset 24
 877              		.cfi_offset 4, -24
 878              		.cfi_offset 5, -20
 879              		.cfi_offset 6, -16
 880              		.cfi_offset 7, -12
 881              		.cfi_offset 8, -8
 882              		.cfi_offset 14, -4
 883 0004 8046     		mov	r8, r0
 884 0006 0F46     		mov	r7, r1
 885 0008 1646     		mov	r6, r2
 185:Core/ssd1306/ssd1306.c ****     uint16_t num_word = strlen(text);
 886              		.loc 1 185 5 is_stmt 1 view .LVU194
 887              		.loc 1 185 25 is_stmt 0 view .LVU195
 888 000a 1046     		mov	r0, r2
 889              	.LVL116:
 890              		.loc 1 185 25 view .LVU196
 891 000c FFF7FEFF 		bl	strlen
 892              	.LVL117:
 893              		.loc 1 185 25 view .LVU197
 894 0010 0546     		mov	r5, r0
 895              	.LVL118:
 186:Core/ssd1306/ssd1306.c ****     for(int i = 0; i <= num_word; i++){
 896              		.loc 1 186 5 is_stmt 1 view .LVU198
 897              	.LBB9:
 898              		.loc 1 186 9 view .LVU199
 899              		.loc 1 186 13 is_stmt 0 view .LVU200
 900 0012 0024     		movs	r4, #0
 901              		.loc 1 186 5 view .LVU201
 902 0014 0AE0     		b	.L49
 903              	.LVL119:
 904              	.L50:
 187:Core/ssd1306/ssd1306.c ****         oled_print_ch(x , y + (i * font_width), text[i]);
 905              		.loc 1 187 9 is_stmt 1 discriminator 3 view .LVU202
 906              		.loc 1 187 36 is_stmt 0 discriminator 3 view .LVU203
 907 0016 084B     		ldr	r3, .L52
 908 0018 5978     		ldrb	r1, [r3, #1]	@ zero_extendqisi2
 909              		.loc 1 187 9 discriminator 3 view .LVU204
 910 001a 14FB01F1 		smulbb	r1, r4, r1
 911 001e 3944     		add	r1, r1, r7
 912 0020 325D     		ldrb	r2, [r6, r4]	@ zero_extendqisi2
 913 0022 C9B2     		uxtb	r1, r1
 914 0024 4046     		mov	r0, r8
 915 0026 FFF7FEFF 		bl	oled_print_ch
 916              	.LVL120:
 186:Core/ssd1306/ssd1306.c ****     for(int i = 0; i <= num_word; i++){
 917              		.loc 1 186 35 is_stmt 1 discriminator 3 view .LVU205
 186:Core/ssd1306/ssd1306.c ****     for(int i = 0; i <= num_word; i++){
 918              		.loc 1 186 36 is_stmt 0 discriminator 3 view .LVU206
 919 002a 0134     		adds	r4, r4, #1
 920              	.LVL121:
 921              	.L49:
 186:Core/ssd1306/ssd1306.c ****     for(int i = 0; i <= num_word; i++){
 922              		.loc 1 186 20 is_stmt 1 discriminator 1 view .LVU207
 186:Core/ssd1306/ssd1306.c ****     for(int i = 0; i <= num_word; i++){
 923              		.loc 1 186 22 is_stmt 0 discriminator 1 view .LVU208
ARM GAS  C:\Users\wucha\AppData\Local\Temp\ccDMtPZY.s 			page 22


 924 002c ABB2     		uxth	r3, r5
 186:Core/ssd1306/ssd1306.c ****     for(int i = 0; i <= num_word; i++){
 925              		.loc 1 186 5 discriminator 1 view .LVU209
 926 002e A342     		cmp	r3, r4
 927 0030 F1DA     		bge	.L50
 928              	.LBE9:
 188:Core/ssd1306/ssd1306.c ****     }
 189:Core/ssd1306/ssd1306.c **** }...
 929              		.loc 1 189 1 view .LVU210
 930 0032 BDE8F081 		pop	{r4, r5, r6, r7, r8, pc}
 931              	.LVL122:
 932              	.L53:
 933              		.loc 1 189 1 view .LVU211
 934 0036 00BF     		.align	2
 935              	.L52:
 936 0038 00000000 		.word	ssd1306xled_font6x8
 937              		.cfi_endproc
 938              	.LFE139:
 940              		.text
 941              	.Letext0:
 942              		.file 2 "c:\\program files (x86)\\gnu arm embedded toolchain\\10 2021.07\\arm-none-eabi\\include\\
 943              		.file 3 "c:\\program files (x86)\\gnu arm embedded toolchain\\10 2021.07\\arm-none-eabi\\include\\
 944              		.file 4 "Drivers/CMSIS/Device/ST/STM32F4xx/Include/stm32f405xx.h"
 945              		.file 5 "Drivers/STM32F4xx_HAL_Driver/Inc/stm32f4xx_hal_def.h"
 946              		.file 6 "Drivers/STM32F4xx_HAL_Driver/Inc/stm32f4xx_hal_dma.h"
 947              		.file 7 "Drivers/STM32F4xx_HAL_Driver/Inc/stm32f4xx_hal_spi.h"
 948              		.file 8 "Core/Inc/spi.h"
 949              		.file 9 "Core/ssd1306/ssd1306_fonts.h"
 950              		.file 10 "c:\\program files (x86)\\gnu arm embedded toolchain\\10 2021.07\\arm-none-eabi\\include\
 951              		.file 11 "Drivers/STM32F4xx_HAL_Driver/Inc/stm32f4xx_hal_gpio.h"
 952              		.file 12 "Drivers/STM32F4xx_HAL_Driver/Inc/stm32f4xx_hal.h"
ARM GAS  C:\Users\wucha\AppData\Local\Temp\ccDMtPZY.s 			page 23

